"File: hopping_set.c  Assembler  Version HGASM0202      Page 1


   1  0000              ; Generated by holtek-gcc v3.19, Thu Nov 06 10:43:28 2025
   2  0000              ; 
   3  0000              ; Configuration:
   4  0000              ;       without long instruction
   5  0000              ;       Single ROM, Multi-RAM
   6  0000              ;       bits_per_rom_unit:15
   7  0000              ;       with mp1
   8  0000              ;       with tbhp, address(0x9)
   9  0000              ;          Use ret-const
  10  0000              ;       
  11  0000              ;       
  12  0000              ;       
  13  0000              ; use 'tabrdc' instead of 'tabrd'
  14  0000              ;       
  15  0000              
  16  0000              #pragma translator "holtek-gcc 4.6.4" "3.19" "build 20130711"
  17  0000              ; Rebuild 718
  18  0000              
  19  0000              ir equ [2]
  20  0000              mp equ [3]
  21  0000              sbp equ [7]
  22  0000              acc equ [5]
  23  0000              bp equ [4]
  24  0000              status equ [10]
  25  0000              c equ [10].0
  26  0000              ac equ [10].1
  27  0000              z equ [10].2
  28  0000              ov equ [10].3
  29  0000              intc equ [11]
  30  0000              
  31  0000              extern ra:byte
  32  0000              extern rb:byte
  33  0000              extern rc:byte
  34  0000              extern rd:byte
  35  0000              extern re:byte
  36  0000              extern rf:byte
  37  0000              extern rg:byte
  38  0000              extern rh:byte
  39  0000              extern _Crom2Prom:near
  40  0000              extern _Crom2PromNext:near
  41  0000              
  42  0000              RAMBANK 0 @HCCINIT, @HCCINIT0
  43  0000              
  44  0000              RAMBANK 0 @BITDATASEC, @BITDATASEC1
  45  0000              @HCCINIT	.section 'data'
  46  0000              @HCCINIT0	.section 'data'
  47  0000              @BITDATASEC	 .section 'data'
  48  0000              @BITDATASEC1	 .section 'data'
  49  0000              
  50  0000              #pragma debug scope 1 1
  51  0000              	extern __DELAY3:near
  52  0000              	extern __DELAYX3:near
  53  0000              	extern __DELAYX6:near
  54  0000              	extern __DELAYY5:near
  55  0000              	extern __DELAYY3:near
  56  0000              	extern _builtin_holtek_delay_2:byte
  57  0000              ___loopcnt0 equ [83]
  58  0000              ___loopcnt1 equ [82]
  59  0000              public _LoopCnt_Init
"File: hopping_set.ASM  Assembler  Version HGASM0202      Page 2

  60  0000              #pragma debug scope 2 1

  83  0000              #line 83 "c:\users\asus\desktop\yeh\rf_control\txd19\txd19ŧŧąąūđcode\txd19_ubv1.2(hcs200)\bc68f3132\hopping\hopping_set.c"
  83  0000              _LoopCnt_Init .section 'code'
  83  0000              _LoopCnt_Init proc
  84  0000              #line 84 "c:\users\asus\desktop\yeh\rf_control\txd19\txd19ŧŧąąūđcode\txd19_ubv1.2(hcs200)\bc68f3132\hopping\hopping_set.c"
  84  0000  0F10        	mov a,16
  84  0001  00D3        	mov [83],a
  85  0002              #line 85 "c:\users\asus\desktop\yeh\rf_control\txd19\txd19ŧŧąąūđcode\txd19_ubv1.2(hcs200)\bc68f3132\hopping\hopping_set.c"
  85  0002  0F02        	mov a,2
  85  0003  00D2        	mov [82],a
  85  0004  0003        	ret
  85  0005              _LoopCnt_Init endp
  85  0005              #line 85 "c:\users\asus\desktop\yeh\rf_control\txd19\txd19ŧŧąąūđcode\txd19_ubv1.2(hcs200)\bc68f3132\hopping\hopping_set.c"
  85  0005              #pragma debug scope 1 1
  85  0005              ___nlf3 equ [70]
  85  0005              ___nlf2 equ [71]
  85  0005              ___nlf1 equ [72]
  85  0005              ___nlf0 equ [73]
  85  0005              public _NLF_Init
  85  0005              #pragma debug scope 3 1
  92  0005              #line 92 "c:\users\asus\desktop\yeh\rf_control\txd19\txd19ŧŧąąūđcode\txd19_ubv1.2(hcs200)\bc68f3132\hopping\hopping_set.c"
  92  0000              _NLF_Init .section 'code'
  92  0000              _NLF_Init proc
  93  0000              #line 93 "c:\users\asus\desktop\yeh\rf_control\txd19\txd19ŧŧąąūđcode\txd19_ubv1.2(hcs200)\bc68f3132\hopping\hopping_set.c"
  93  0000  0F3A        	mov a,58
  93  0001  00C6        	mov [70],a
  94  0002              #line 94 "c:\users\asus\desktop\yeh\rf_control\txd19\txd19ŧŧąąūđcode\txd19_ubv1.2(hcs200)\bc68f3132\hopping\hopping_set.c"
  94  0002  0F5C        	mov a,92
  94  0003  00C7        	mov [71],a
  95  0004              #line 95 "c:\users\asus\desktop\yeh\rf_control\txd19\txd19ŧŧąąūđcode\txd19_ubv1.2(hcs200)\bc68f3132\hopping\hopping_set.c"
  95  0004  0F74        	mov a,116
  95  0005  00C8        	mov [72],a
  96  0006              #line 96 "c:\users\asus\desktop\yeh\rf_control\txd19\txd19ŧŧąąūđcode\txd19_ubv1.2(hcs200)\bc68f3132\hopping\hopping_set.c"
  96  0006  0F2E        	mov a,46
  96  0007  00C9        	mov [73],a
  96  0008  0003        	ret
  96  0009              _NLF_Init endp
  96  0009              #line 96 "c:\users\asus\desktop\yeh\rf_control\txd19\txd19ŧŧąąūđcode\txd19_ubv1.2(hcs200)\bc68f3132\hopping\hopping_set.c"
  96  0009              #pragma debug scope 1 1
  96  0009              ___hpkey0 equ [81]
  96  0009              ___hpkey1 equ [80]
  96  0009              ___hpkey2 equ [79]
  96  0009              ___hpkey3 equ [78]
  96  0009              ___hpkey4 equ [77]
  96  0009              ___hpkey5 equ [76]
  96  0009              ___hpkey6 equ [75]
  96  0009              ___hpkey7 equ [74]
  96  0009              public _HpKey_Init
  96  0009              #pragma debug scope 4 1
 140  0009              #line 140 "c:\users\asus\desktop\yeh\rf_control\txd19\txd19ŧŧąąūđcode\txd19_ubv1.2(hcs200)\bc68f3132\hopping\hopping_set.c"
 140  0000              _HpKey_Init .section 'code'
 140  0000              _HpKey_Init proc
 140  0000  00              local _HpKey_Init_2 db 1 dup(?)	; 0,1
 140  0000  0080     R  	mov _HpKey_Init_2[0],a
 140  0001              #pragma debug variable 8 4 _HpKey_Init_2+0 "tmp"
 141  0001              #line 141 "c:\users\asus\desktop\yeh\rf_control\txd19\txd19ŧŧąąūđcode\txd19_ubv1.2(hcs200)\bc68f3132\hopping\hopping_set.c"
 141  0001  1080     R  	sz _HpKey_Init_2[0]
 141  0002  2800     R  	jmp _LI1
 141  0003  2800     R  	jmp _L4
"File: hopping_set.c  Assembler  Version HGASM0202      Page 3

 141  0004              _LI1:
 141  0004              #pragma debug scope 5 4
 141  0004              ;begin block, line: 141.-1
 141  0004              #pragma debug scope 6 5
 141  0004              ;begin block, line: 141.-1
 143  0004              #line 143 "c:\users\asus\desktop\yeh\rf_control\txd19\txd19ŧŧąąūđcode\txd19_ubv1.2(hcs200)\bc68f3132\hopping\hopping_set.c"
 143  0004  0700     E  	mov a,_MFG[0]
 143  0005  00D1        	mov [81],a
 144  0006              #line 144 "c:\users\asus\desktop\yeh\rf_control\txd19\txd19ŧŧąąūđcode\txd19_ubv1.2(hcs200)\bc68f3132\hopping\hopping_set.c"
 144  0006  0700     E  	mov a,_MFG[1]
 144  0007  00D0        	mov [80],a
 145  0008              #line 145 "c:\users\asus\desktop\yeh\rf_control\txd19\txd19ŧŧąąūđcode\txd19_ubv1.2(hcs200)\bc68f3132\hopping\hopping_set.c"
 145  0008  0700     E  	mov a,_MFG[2]
 145  0009  00CF        	mov [79],a
 146  000A              #line 146 "c:\users\asus\desktop\yeh\rf_control\txd19\txd19ŧŧąąūđcode\txd19_ubv1.2(hcs200)\bc68f3132\hopping\hopping_set.c"
 146  000A  0700     E  	mov a,_MFG[3]
 146  000B  00CE        	mov [78],a
 147  000C              #line 147 "c:\users\asus\desktop\yeh\rf_control\txd19\txd19ŧŧąąūđcode\txd19_ubv1.2(hcs200)\bc68f3132\hopping\hopping_set.c"
 147  000C  0700     E  	mov a,_MFG[4]
 147  000D  00CD        	mov [77],a
 148  000E              #line 148 "c:\users\asus\desktop\yeh\rf_control\txd19\txd19ŧŧąąūđcode\txd19_ubv1.2(hcs200)\bc68f3132\hopping\hopping_set.c"
 148  000E  0700     E  	mov a,_MFG[5]
 148  000F  00CC        	mov [76],a
 149  0010              #line 149 "c:\users\asus\desktop\yeh\rf_control\txd19\txd19ŧŧąąūđcode\txd19_ubv1.2(hcs200)\bc68f3132\hopping\hopping_set.c"
 149  0010  0700     E  	mov a,_MFG[6]
 149  0011  00CB        	mov [75],a
 150  0012              #line 150 "c:\users\asus\desktop\yeh\rf_control\txd19\txd19ŧŧąąūđcode\txd19_ubv1.2(hcs200)\bc68f3132\hopping\hopping_set.c"
 150  0012  0700     E  	mov a,_MFG[7]
 150  0013  00CA        	mov [74],a
 150  0014  2800     R  	jmp _L3
 150  0015              _L4:
 150  0015              #pragma debug scope 5 4
 150  0015              #pragma debug scope 4 1
 154  0015              #line 154 "c:\users\asus\desktop\yeh\rf_control\txd19\txd19ŧŧąąūđcode\txd19_ubv1.2(hcs200)\bc68f3132\hopping\hopping_set.c"
 154  0015  0700     R  	mov a,_tSecretKey[0]
 154  0016  00D1        	mov [81],a
 155  0017              #line 155 "c:\users\asus\desktop\yeh\rf_control\txd19\txd19ŧŧąąūđcode\txd19_ubv1.2(hcs200)\bc68f3132\hopping\hopping_set.c"
 155  0017  0700     R  	mov a,_tSecretKey[1]
 155  0018  00D0        	mov [80],a
 156  0019              #line 156 "c:\users\asus\desktop\yeh\rf_control\txd19\txd19ŧŧąąūđcode\txd19_ubv1.2(hcs200)\bc68f3132\hopping\hopping_set.c"
 156  0019  0700     R  	mov a,_tSecretKey[2]
 156  001A  00CF        	mov [79],a
 157  001B              #line 157 "c:\users\asus\desktop\yeh\rf_control\txd19\txd19ŧŧąąūđcode\txd19_ubv1.2(hcs200)\bc68f3132\hopping\hopping_set.c"
 157  001B  0700     R  	mov a,_tSecretKey[3]
 157  001C  00CE        	mov [78],a
 158  001D              #line 158 "c:\users\asus\desktop\yeh\rf_control\txd19\txd19ŧŧąąūđcode\txd19_ubv1.2(hcs200)\bc68f3132\hopping\hopping_set.c"
 158  001D  0700     R  	mov a,_tSecretKey[4]
 158  001E  00CD        	mov [77],a
 159  001F              #line 159 "c:\users\asus\desktop\yeh\rf_control\txd19\txd19ŧŧąąūđcode\txd19_ubv1.2(hcs200)\bc68f3132\hopping\hopping_set.c"
 159  001F  0700     R  	mov a,_tSecretKey[5]
 159  0020  00CC        	mov [76],a
 160  0021              #line 160 "c:\users\asus\desktop\yeh\rf_control\txd19\txd19ŧŧąąūđcode\txd19_ubv1.2(hcs200)\bc68f3132\hopping\hopping_set.c"
 160  0021  0700     R  	mov a,_tSecretKey[6]
 160  0022  00CB        	mov [75],a
 161  0023              #line 161 "c:\users\asus\desktop\yeh\rf_control\txd19\txd19ŧŧąąūđcode\txd19_ubv1.2(hcs200)\bc68f3132\hopping\hopping_set.c"
 161  0023  0700     R  	mov a,_tSecretKey[7]
 161  0024  00CA        	mov [74],a
 161  0025              _L3:
 161  0025  0003        	ret
 161  0026              _HpKey_Init endp
"File: hopping_set.c  Assembler  Version HGASM0202      Page 4

 161  0026              #line 161 "c:\users\asus\desktop\yeh\rf_control\txd19\txd19ŧŧąąūđcode\txd19_ubv1.2(hcs200)\bc68f3132\hopping\hopping_set.c"
 161  0026              #pragma debug scope 1 1
 161  0026              public _produceKey
 161  0026              #pragma debug scope 7 1
 100  0026              #line 100 "c:\users\asus\desktop\yeh\rf_control\txd19\txd19ŧŧąąūđcode\txd19_ubv1.2(hcs200)\bc68f3132\hopping\hopping_set.c"
 100  0000              _produceKey .section 'code'
 100  0000              _produceKey proc
 127  0000              #line 127 "c:\users\asus\desktop\yeh\rf_control\txd19\txd19ŧŧąąūđcode\txd19_ubv1.2(hcs200)\bc68f3132\hopping\hopping_set.c"
 127  0000  2000     R  	call _LoopCnt_Init
 128  0001              #line 128 "c:\users\asus\desktop\yeh\rf_control\txd19\txd19ŧŧąąūđcode\txd19_ubv1.2(hcs200)\bc68f3132\hopping\hopping_set.c"
 128  0001  2000     R  	call _NLF_Init
 129  0002              #line 129 "c:\users\asus\desktop\yeh\rf_control\txd19\txd19ŧŧąąūđcode\txd19_ubv1.2(hcs200)\bc68f3132\hopping\hopping_set.c"
 129  0002  0F01        	mov a,1
 129  0003  2000     R  	call _HpKey_Init
 129  0004  0003        	ret
 129  0005              _produceKey endp
 129  0005              #line 129 "c:\users\asus\desktop\yeh\rf_control\txd19\txd19ŧŧąąūđcode\txd19_ubv1.2(hcs200)\bc68f3132\hopping\hopping_set.c"
 129  0005              #pragma debug scope 1 1
 129  0005              ___nlfsr0 equ [69]
 129  0005              ___nlfsr1 equ [68]
 129  0005              ___nlfsr2 equ [67]
 129  0005              ___nlfsr3 equ [66]
 129  0005              public _NLFSR_Init
 129  0005              #pragma debug scope 8 1
 173  0005              #line 173 "c:\users\asus\desktop\yeh\rf_control\txd19\txd19ŧŧąąūđcode\txd19_ubv1.2(hcs200)\bc68f3132\hopping\hopping_set.c"
 173  0000              _NLFSR_Init .section 'code'
 173  0000              _NLFSR_Init proc
 173  0000  0002[           local _NLFSR_Init_2 db 2 dup(?)	; 0,2
            00
            ]
 173  0000  0080     R  	mov _NLFSR_Init_2[0],a
 173  0001              #pragma debug variable 8 8 _NLFSR_Init_2+0 "tmp"
 174  0001              #line 174 "c:\users\asus\desktop\yeh\rf_control\txd19\txd19ŧŧąąūđcode\txd19_ubv1.2(hcs200)\bc68f3132\hopping\hopping_set.c"
 174  0001  0700     R  	mov a,_NLFSR_Init_2[0]
 174  0002  0080     R  	mov _NLFSR_Init_2[1],a
 174  0003  0700     R  	mov a,_NLFSR_Init_2[1]
 174  0004  0A00        	sub a,0
 174  0005  3D0A        	sz z
 174  0006  2800     R  	jmp _L10
 174  0007  0A02        	sub a,(2)-(0)
 174  0008  3D0A        	sz z
 174  0009  2800     R  	jmp _L11
 174  000A              #line 174 "c:\users\asus\desktop\yeh\rf_control\txd19\txd19ŧŧąąūđcode\txd19_ubv1.2(hcs200)\bc68f3132\hopping\hopping_set.c"
 174  000A  0700     R  	mov a,_NLFSR_Init_2[1]
 174  000B  0A03        	sub a,3
 174  000C  390A        	snz z
 174  000D  2800     R  	jmp _L8
 209  000E              #line 209 "c:\users\asus\desktop\yeh\rf_control\txd19\txd19ŧŧąąūđcode\txd19_ubv1.2(hcs200)\bc68f3132\hopping\hopping_set.c"
 209  000E  0700     E  	mov a,_SERIAL_NUMBER[3]
 209  000F  0D60        	or a,96
 209  0010  00C2        	mov [66],a
 209  0011  2800     R  	jmp _L13
 209  0012              _L10:
 185  0012              #line 185 "c:\users\asus\desktop\yeh\rf_control\txd19\txd19ŧŧąąūđcode\txd19_ubv1.2(hcs200)\bc68f3132\hopping\hopping_set.c"
 185  0012  0700     E  	mov a,_cSync[0]
 185  0013  00C5        	mov [69],a
 186  0014              #line 186 "c:\users\asus\desktop\yeh\rf_control\txd19\txd19ŧŧąąūđcode\txd19_ubv1.2(hcs200)\bc68f3132\hopping\hopping_set.c"
 186  0014  0700     E  	mov a,_cSync[1]
 186  0015  00C4        	mov [68],a
 187  0016              #line 187 "c:\users\asus\desktop\yeh\rf_control\txd19\txd19ŧŧąąūđcode\txd19_ubv1.2(hcs200)\bc68f3132\hopping\hopping_set.c"
"File: hopping_set.c  Assembler  Version HGASM0202      Page 5

 187  0016  0700     E  	mov a,_DISC[0]
 187  0017  00C3        	mov [67],a
 191  0018              #line 191 "c:\users\asus\desktop\yeh\rf_control\txd19\txd19ŧŧąąūđcode\txd19_ubv1.2(hcs200)\bc68f3132\hopping\hopping_set.c"
 191  0018  0700     E  	mov a,_MRFDATA[0]
 191  0019  0080     E  	mov rb,a
 191  001A  1F00     E  	clr rc
 191  001B  0F04        	mov a,4
 191  001C              _LI2:
 191  001C  340A        	clr c
 191  001D  1A80     E  	rlc rb
 191  001E  1A80     E  	rlc rc
 191  001F  1785        	sdz acc
 191  0020  2800     R  	jmp _LI2
 191  0021  0700     E  	mov a,_DISC[1]
 191  0022  0E0F        	and a,15
 191  0023  0080     E  	mov ra,a
 191  0024  0700     E  	mov a,ra
 191  0025  0300     E  	add a,rb
 191  0026  00C2        	mov [66],a
 196  0027              #line 196 "c:\users\asus\desktop\yeh\rf_control\txd19\txd19ŧŧąąūđcode\txd19_ubv1.2(hcs200)\bc68f3132\hopping\hopping_set.c"
 196  0027  2800     R  	jmp _L8
 196  0028              _L11:
 200  0028              #line 200 "c:\users\asus\desktop\yeh\rf_control\txd19\txd19ŧŧąąūđcode\txd19_ubv1.2(hcs200)\bc68f3132\hopping\hopping_set.c"
 200  0028  0700     E  	mov a,_SERIAL_NUMBER[3]
 200  0029  0080     E  	mov ra,a
 200  002A  3000     E  	set ra.5
 200  002B  0700     E  	mov a,ra
 200  002C  00C2        	mov [66],a
 200  002D              _L13:
 210  002D              #line 210 "c:\users\asus\desktop\yeh\rf_control\txd19\txd19ŧŧąąūđcode\txd19_ubv1.2(hcs200)\bc68f3132\hopping\hopping_set.c"
 210  002D  0700     E  	mov a,_SERIAL_NUMBER[0]
 210  002E  00C5        	mov [69],a
 211  002F              #line 211 "c:\users\asus\desktop\yeh\rf_control\txd19\txd19ŧŧąąūđcode\txd19_ubv1.2(hcs200)\bc68f3132\hopping\hopping_set.c"
 211  002F  0700     E  	mov a,_SERIAL_NUMBER[1]
 211  0030  00C4        	mov [68],a
 212  0031              #line 212 "c:\users\asus\desktop\yeh\rf_control\txd19\txd19ŧŧąąūđcode\txd19_ubv1.2(hcs200)\bc68f3132\hopping\hopping_set.c"
 212  0031  0700     E  	mov a,_SERIAL_NUMBER[2]
 212  0032  00C3        	mov [67],a
 212  0033              _L8:
 212  0033  0003        	ret
 212  0034              _NLFSR_Init endp
 212  0034              #line 212 "c:\users\asus\desktop\yeh\rf_control\txd19\txd19ŧŧąąūđcode\txd19_ubv1.2(hcs200)\bc68f3132\hopping\hopping_set.c"
 212  0034              #pragma debug scope 1 1
 212  0034              ___intc0 equ [35]
 212  0034              ___hpec equ [65]
 212  0034              public _NLFSR_Read
 212  0034              #pragma debug scope 9 1
 225  0034              #line 225 "c:\users\asus\desktop\yeh\rf_control\txd19\txd19ŧŧąąūđcode\txd19_ubv1.2(hcs200)\bc68f3132\hopping\hopping_set.c"
 225  0000              _NLFSR_Read .section 'code'
 225  0000              _NLFSR_Read proc
 226  0000              #line 226 "c:\users\asus\desktop\yeh\rf_control\txd19\txd19ŧŧąąūđcode\txd19_ubv1.2(hcs200)\bc68f3132\hopping\hopping_set.c"
 226  0000  1F00     E  	clr _K_R[3]
 227  0001              #line 227 "c:\users\asus\desktop\yeh\rf_control\txd19\txd19ŧŧąąūđcode\txd19_ubv1.2(hcs200)\bc68f3132\hopping\hopping_set.c"
 227  0001  1F00     E  	clr _K_R[2]
 228  0002              #line 228 "c:\users\asus\desktop\yeh\rf_control\txd19\txd19ŧŧąąūđcode\txd19_ubv1.2(hcs200)\bc68f3132\hopping\hopping_set.c"
 228  0002  1F00     E  	clr _K_R[1]
 229  0003              #line 229 "c:\users\asus\desktop\yeh\rf_control\txd19\txd19ŧŧąąūđcode\txd19_ubv1.2(hcs200)\bc68f3132\hopping\hopping_set.c"
 229  0003  1F00     E  	clr _K_R[0]
 231  0004              #line 231 "c:\users\asus\desktop\yeh\rf_control\txd19\txd19ŧŧąąūđcode\txd19_ubv1.2(hcs200)\bc68f3132\hopping\hopping_set.c"
 231  0004  0742        	mov a,[66]
"File: hopping_set.c  Assembler  Version HGASM0202      Page 6

 231  0005  0080     E  	mov _K_R[3],a
 232  0006              #line 232 "c:\users\asus\desktop\yeh\rf_control\txd19\txd19ŧŧąąūđcode\txd19_ubv1.2(hcs200)\bc68f3132\hopping\hopping_set.c"
 232  0006  0743        	mov a,[67]
 232  0007  0080     E  	mov _K_R[2],a
 233  0008              #line 233 "c:\users\asus\desktop\yeh\rf_control\txd19\txd19ŧŧąąūđcode\txd19_ubv1.2(hcs200)\bc68f3132\hopping\hopping_set.c"
 233  0008  0744        	mov a,[68]
 233  0009  0080     E  	mov _K_R[1],a
 234  000A              #line 234 "c:\users\asus\desktop\yeh\rf_control\txd19\txd19ŧŧąąūđcode\txd19_ubv1.2(hcs200)\bc68f3132\hopping\hopping_set.c"
 234  000A  0745        	mov a,[69]
 234  000B  0080     E  	mov _K_R[0],a
 235  000C              #line 235 "c:\users\asus\desktop\yeh\rf_control\txd19\txd19ŧŧąąūđcode\txd19_ubv1.2(hcs200)\bc68f3132\hopping\hopping_set.c"
 235  000C  3523        	clr [35].2
 235  000D  3441        	clr [65].0
 235  000E  0003        	ret
 235  000F              _NLFSR_Read endp
 235  000F              #line 235 "c:\users\asus\desktop\yeh\rf_control\txd19\txd19ŧŧąąūđcode\txd19_ubv1.2(hcs200)\bc68f3132\hopping\hopping_set.c"
 235  000F              #pragma debug scope 1 1
 235  000F              public _Decrypt
 235  000F              #pragma debug scope 10 1
 240  000F              #line 240 "c:\users\asus\desktop\yeh\rf_control\txd19\txd19ŧŧąąūđcode\txd19_ubv1.2(hcs200)\bc68f3132\hopping\hopping_set.c"
 240  0000              _Decrypt .section 'code'
 240  0000              _Decrypt proc
 241  0000              #line 241 "c:\users\asus\desktop\yeh\rf_control\txd19\txd19ŧŧąąūđcode\txd19_ubv1.2(hcs200)\bc68f3132\hopping\hopping_set.c"
 241  0000  30C1        	set [65].1
 242  0001              #line 242 "c:\users\asus\desktop\yeh\rf_control\txd19\txd19ŧŧąąūđcode\txd19_ubv1.2(hcs200)\bc68f3132\hopping\hopping_set.c"
 242  0001  3041        	set [65].0
 242  0002              _L17:
 245  0002              #line 245 "c:\users\asus\desktop\yeh\rf_control\txd19\txd19ŧŧąąūđcode\txd19_ubv1.2(hcs200)\bc68f3132\hopping\hopping_set.c"
 245  0002              ;# 245 "c:\users\asus\desktop\yeh\rf_control\txd19\txd19ŧŧąąūđcode\txd19_ubv1.2(hcs200)\bc68f3132\hopping\hopping_set.c" 1
 245  0002  0001        	clr wdt
 246  0003              #line 246 "c:\users\asus\desktop\yeh\rf_control\txd19\txd19ŧŧąąūđcode\txd19_ubv1.2(hcs200)\bc68f3132\hopping\hopping_set.c"
 246  0003  3C41        	sz [65].0
 246  0004  2800     R  	jmp _L17
 246  0005  0003        	ret
 246  0006              _Decrypt endp
 246  0006              #line 246 "c:\users\asus\desktop\yeh\rf_control\txd19\txd19ŧŧąąūđcode\txd19_ubv1.2(hcs200)\bc68f3132\hopping\hopping_set.c"
 246  0006              #pragma debug scope 1 1
 246  0006              public _Encrypt
 246  0006              #pragma debug scope 11 1
 251  0006              #line 251 "c:\users\asus\desktop\yeh\rf_control\txd19\txd19ŧŧąąūđcode\txd19_ubv1.2(hcs200)\bc68f3132\hopping\hopping_set.c"
 251  0000              _Encrypt .section 'code'
 251  0000              _Encrypt proc
 252  0000              #line 252 "c:\users\asus\desktop\yeh\rf_control\txd19\txd19ŧŧąąūđcode\txd19_ubv1.2(hcs200)\bc68f3132\hopping\hopping_set.c"
 252  0000  34C1        	clr [65].1
 253  0001              #line 253 "c:\users\asus\desktop\yeh\rf_control\txd19\txd19ŧŧąąūđcode\txd19_ubv1.2(hcs200)\bc68f3132\hopping\hopping_set.c"
 253  0001  3041        	set [65].0
 253  0002              _L20:
 256  0002              #line 256 "c:\users\asus\desktop\yeh\rf_control\txd19\txd19ŧŧąąūđcode\txd19_ubv1.2(hcs200)\bc68f3132\hopping\hopping_set.c"
 256  0002              ;# 256 "c:\users\asus\desktop\yeh\rf_control\txd19\txd19ŧŧąąūđcode\txd19_ubv1.2(hcs200)\bc68f3132\hopping\hopping_set.c" 1
 256  0002  0001        	clr wdt
 257  0003              #line 257 "c:\users\asus\desktop\yeh\rf_control\txd19\txd19ŧŧąąūđcode\txd19_ubv1.2(hcs200)\bc68f3132\hopping\hopping_set.c"
 257  0003  3C41        	sz [65].0
 257  0004  2800     R  	jmp _L20
 257  0005  0003        	ret
 257  0006              _Encrypt endp
 257  0006              #line 257 "c:\users\asus\desktop\yeh\rf_control\txd19\txd19ŧŧąąūđcode\txd19_ubv1.2(hcs200)\bc68f3132\hopping\hopping_set.c"
 257  0006              #pragma debug scope 1 1
 257  0006              public _Hopping_Encryption
 257  0006              #pragma debug scope 12 1
  28  0006              #line 28 "c:\users\asus\desktop\yeh\rf_control\txd19\txd19ŧŧąąūđcode\txd19_ubv1.2(hcs200)\bc68f3132\hopping\hopping_set.c"
"File: hopping_set.c  Assembler  Version HGASM0202      Page 7

  28  0000              _Hopping_Encryption .section 'code'
  28  0000              _Hopping_Encryption proc
  43  0000              #line 43 "c:\users\asus\desktop\yeh\rf_control\txd19\txd19ŧŧąąūđcode\txd19_ubv1.2(hcs200)\bc68f3132\hopping\hopping_set.c"
  43  0000  1400     E  	inca _cSync[0]
  43  0001  0080     E  	mov ra,a
  43  0002  0700     E  	mov a,ra
  43  0003  0080     E  	mov _cSync[0],a
  43  0004  1080     E  	sz ra
  43  0005  2800     R  	jmp _L22
  44  0006              #line 44 "c:\users\asus\desktop\yeh\rf_control\txd19\txd19ŧŧąąūđcode\txd19_ubv1.2(hcs200)\bc68f3132\hopping\hopping_set.c"
  44  0006  1480     E  	inc _cSync[1]
  44  0007              _L22:
  65  0007              #line 65 "c:\users\asus\desktop\yeh\rf_control\txd19\txd19ŧŧąąūđcode\txd19_ubv1.2(hcs200)\bc68f3132\hopping\hopping_set.c"
  65  0007  2000     R  	call _LoopCnt_Init
  71  0008              #line 71 "c:\users\asus\desktop\yeh\rf_control\txd19\txd19ŧŧąąūđcode\txd19_ubv1.2(hcs200)\bc68f3132\hopping\hopping_set.c"
  71  0008  0F01        	mov a,1
  71  0009  2000     R  	call _HpKey_Init
  74  000A              #line 74 "c:\users\asus\desktop\yeh\rf_control\txd19\txd19ŧŧąąūđcode\txd19_ubv1.2(hcs200)\bc68f3132\hopping\hopping_set.c"
  74  000A  0F00        	mov a,0
  74  000B  2000     R  	call _NLFSR_Init
  75  000C              #line 75 "c:\users\asus\desktop\yeh\rf_control\txd19\txd19ŧŧąąūđcode\txd19_ubv1.2(hcs200)\bc68f3132\hopping\hopping_set.c"
  75  000C  2000     R  	call _Encrypt
  76  000D              #line 76 "c:\users\asus\desktop\yeh\rf_control\txd19\txd19ŧŧąąūđcode\txd19_ubv1.2(hcs200)\bc68f3132\hopping\hopping_set.c"
  76  000D  2000     R  	call _NLFSR_Read
  76  000E  0003        	ret
  76  000F              _Hopping_Encryption endp
  76  000F              #line 76 "c:\users\asus\desktop\yeh\rf_control\txd19\txd19ŧŧąąūđcode\txd19_ubv1.2(hcs200)\bc68f3132\hopping\hopping_set.c"
  76  000F              #pragma debug scope 1 1
   9  000F              #line 9 "c:\users\asus\desktop\yeh\rf_control\txd19\txd19ŧŧąąūđcode\txd19_ubv1.2(hcs200)\bc68f3132\hopping\hopping_set.c"
   9  000F              public _tSecretKey
   9  0000              @HCCINIT0 .section 'data'
   9  0000  0008[       _tSecretKey	db 8 dup(0)
            00
            ]
   9  0008              #pragma debug array 42 8 8 1
   9  0008              #pragma debug array 42 8 8 1
   9  0008              #pragma debug variable 42 1 _tSecretKey "tSecretKey"
   9  0008              
   9  0000              @HCCINIT .section 'data'
   9  0000              #pragma debug struct_end
   9  0000              #pragma debug struct_end
   9  0000              #pragma debug union_end
   9  0000              #pragma debug union_end
   9  0000              #pragma debug variable 44 1 ___intc0 "__intc0" 1
   9  0000              #pragma debug struct_end
   9  0000              #pragma debug struct_end
   9  0000              #pragma debug union_end
   9  0000              #pragma debug union_end
   9  0000              #pragma debug variable 46 1 ___hpec "__hpec" 1
   9  0000              #pragma debug variable 8 1 ___nlfsr3 "__nlfsr3" 1
   9  0000              #pragma debug variable 8 1 ___nlfsr2 "__nlfsr2" 1
   9  0000              #pragma debug variable 8 1 ___nlfsr1 "__nlfsr1" 1
   9  0000              #pragma debug variable 8 1 ___nlfsr0 "__nlfsr0" 1
   9  0000              #pragma debug variable 8 1 ___nlf3 "__nlf3" 1
   9  0000              #pragma debug variable 8 1 ___nlf2 "__nlf2" 1
   9  0000              #pragma debug variable 8 1 ___nlf1 "__nlf1" 1
   9  0000              #pragma debug variable 8 1 ___nlf0 "__nlf0" 1
   9  0000              #pragma debug variable 8 1 ___hpkey7 "__hpkey7" 1
   9  0000              #pragma debug variable 8 1 ___hpkey6 "__hpkey6" 1
   9  0000              #pragma debug variable 8 1 ___hpkey5 "__hpkey5" 1
"File: hopping_set.c  Assembler  Version HGASM0202      Page 8

   9  0000              #pragma debug variable 8 1 ___hpkey4 "__hpkey4" 1
   9  0000              #pragma debug variable 8 1 ___hpkey3 "__hpkey3" 1
   9  0000              #pragma debug variable 8 1 ___hpkey2 "__hpkey2" 1
   9  0000              #pragma debug variable 8 1 ___hpkey1 "__hpkey1" 1
   9  0000              #pragma debug variable 8 1 ___hpkey0 "__hpkey0" 1
   9  0000              #pragma debug variable 8 1 ___loopcnt1 "__loopcnt1" 1
   9  0000              #pragma debug variable 8 1 ___loopcnt0 "__loopcnt0" 1
   9  0000              
   9  0000              ; output external variables
   9  0000              extern _K_R:byte
   9  0000              extern _MRFDATA:byte
   9  0000              extern _DISC:byte
   9  0000              extern _cSync:byte
   9  0000              extern _SERIAL_NUMBER:byte
   9  0000              extern _MFG:byte
   9  0000              
   9  0000              ; 
   9  0000              ; Generated by holtek-gcc v3.19, Thu Nov 06 10:43:28 2025
   9  0000              ; Rebuild 718
   9  0000              ; end of file


        0 Errors, 0