"File: key.c         Assembler  Version HGASM0202      Page 1


   1  0000              ; Generated by holtek-gcc v3.19, Thu Nov 06 10:43:27 2025
   2  0000              ; 
   3  0000              ; Configuration:
   4  0000              ;       without long instruction
   5  0000              ;       Single ROM, Multi-RAM
   6  0000              ;       bits_per_rom_unit:15
   7  0000              ;       with mp1
   8  0000              ;       with tbhp, address(0x9)
   9  0000              ;          Use ret-const
  10  0000              ;       
  11  0000              ;       
  12  0000              ;       
  13  0000              ; use 'tabrdc' instead of 'tabrd'
  14  0000              ;       
  15  0000              
  16  0000              #pragma translator "holtek-gcc 4.6.4" "3.19" "build 20130711"
  17  0000              ; Rebuild 718
  18  0000              
  19  0000              ir equ [2]
  20  0000              mp equ [3]
  21  0000              sbp equ [7]
  22  0000              acc equ [5]
  23  0000              bp equ [4]
  24  0000              status equ [10]
  25  0000              c equ [10].0
  26  0000              ac equ [10].1
  27  0000              z equ [10].2
  28  0000              ov equ [10].3
  29  0000              intc equ [11]
  30  0000              
  31  0000              extern ra:byte
  32  0000              extern rb:byte
  33  0000              extern rc:byte
  34  0000              extern rd:byte
  35  0000              extern re:byte
  36  0000              extern rf:byte
  37  0000              extern rg:byte
  38  0000              extern rh:byte
  39  0000              extern _Crom2Prom:near
  40  0000              extern _Crom2PromNext:near
  41  0000              
  42  0000              RAMBANK 0 @HCCINIT, @HCCINIT0
  43  0000              
  44  0000              RAMBANK 0 @BITDATASEC, @BITDATASEC1
  45  0000              @HCCINIT	.section 'data'
  46  0000              @HCCINIT0	.section 'data'
  47  0000              @BITDATASEC	 .section 'data'
  48  0000              @BITDATASEC1	 .section 'data'
  49  0000              
  50  0000              #pragma debug scope 1 1
  51  0000              	extern __DELAY3:near
  52  0000              	extern __DELAYX3:near
  53  0000              	extern __DELAYX6:near
  54  0000              	extern __DELAYY5:near
  55  0000              	extern __DELAYY3:near
  56  0000              	extern _builtin_holtek_delay_2:byte
  57  0000              public _Key_To_IO
  58  0000              #pragma debug scope 2 1

"File: key.c         Assembler  Version HGASM0202      Page 2

  27  0000              #line 27 "c:\users\asus\desktop\yeh\rf_control\txd19\txd19ŧŧąąūđcode\txd19_ubv1.2(hcs200)\bc68f3132\key\key.c"
  27  0000              _Key_To_IO .section 'code'
  27  0000              _Key_To_IO proc
  28  0000              #line 28 "c:\users\asus\desktop\yeh\rf_control\txd19\txd19ŧŧąąūđcode\txd19_ubv1.2(hcs200)\bc68f3132\key\key.c"
  28  0000  3400     R  	clr _Key_IO[0].0
  29  0001              #line 29 "c:\users\asus\desktop\yeh\rf_control\txd19\txd19ŧŧąąūđcode\txd19_ubv1.2(hcs200)\bc68f3132\key\key.c"
  29  0001  3400     R  	clr _Key_IO[0].1
  30  0002              #line 30 "c:\users\asus\desktop\yeh\rf_control\txd19\txd19ŧŧąąūđcode\txd19_ubv1.2(hcs200)\bc68f3132\key\key.c"
  30  0002  3400     R  	clr _Key_IO[0].2
  31  0003              #line 31 "c:\users\asus\desktop\yeh\rf_control\txd19\txd19ŧŧąąūđcode\txd19_ubv1.2(hcs200)\bc68f3132\key\key.c"
  31  0003  3400     R  	clr _Key_IO[0].3
  32  0004              #line 32 "c:\users\asus\desktop\yeh\rf_control\txd19\txd19ŧŧąąūđcode\txd19_ubv1.2(hcs200)\bc68f3132\key\key.c"
  32  0004  3000     R  	set _Key_IO[0].4
  33  0005              #line 33 "c:\users\asus\desktop\yeh\rf_control\txd19\txd19ŧŧąąūđcode\txd19_ubv1.2(hcs200)\bc68f3132\key\key.c"
  33  0005  3000     R  	set _Key_IO[0].5
  34  0006              #line 34 "c:\users\asus\desktop\yeh\rf_control\txd19\txd19ŧŧąąūđcode\txd19_ubv1.2(hcs200)\bc68f3132\key\key.c"
  34  0006  3000     R  	set _Key_IO[0].6
  35  0007              #line 35 "c:\users\asus\desktop\yeh\rf_control\txd19\txd19ŧŧąąūđcode\txd19_ubv1.2(hcs200)\bc68f3132\key\key.c"
  35  0007  3000     R  	set _Key_IO[0].7
  35  0008  0003        	ret
  35  0009              _Key_To_IO endp
  35  0009              #line 35 "c:\users\asus\desktop\yeh\rf_control\txd19\txd19ŧŧąąūđcode\txd19_ubv1.2(hcs200)\bc68f3132\key\key.c"
  35  0009              #pragma debug scope 1 1
  35  0009              ___pa equ [20]
  35  0009              ___pac equ [21]
  35  0009              ___papu equ [22]
  35  0009              ___pawu equ [23]
  35  0009              ___pb equ [24]
  35  0009              ___pbc equ [25]
  35  0009              ___pbpu equ [26]
  35  0009              public _Key_Init
  35  0009              #pragma debug scope 3 1
  39  0009              #line 39 "c:\users\asus\desktop\yeh\rf_control\txd19\txd19ŧŧąąūđcode\txd19_ubv1.2(hcs200)\bc68f3132\key\key.c"
  39  0000              _Key_Init .section 'code'
  39  0000              _Key_Init proc
  42  0000              #line 42 "c:\users\asus\desktop\yeh\rf_control\txd19\txd19ŧŧąąūđcode\txd19_ubv1.2(hcs200)\bc68f3132\key\key.c"
  42  0000  3000     R  	set _fkeyrelse
  45  0001              #line 45 "c:\users\asus\desktop\yeh\rf_control\txd19\txd19ŧŧąąūđcode\txd19_ubv1.2(hcs200)\bc68f3132\key\key.c"
  45  0001  2000     R  	call _Key_To_IO
  47  0002              #line 47 "c:\users\asus\desktop\yeh\rf_control\txd19\txd19ŧŧąąūđcode\txd19_ubv1.2(hcs200)\bc68f3132\key\key.c"
  47  0002  0700     R  	mov a,_Key_IO[0]
  47  0003  0094        	mov [20],a
  48  0004              #line 48 "c:\users\asus\desktop\yeh\rf_control\txd19\txd19ŧŧąąūđcode\txd19_ubv1.2(hcs200)\bc68f3132\key\key.c"
  48  0004  0700     R  	mov a,_Key_IO[0]
  48  0005  0095        	mov [21],a
  49  0006              #line 49 "c:\users\asus\desktop\yeh\rf_control\txd19\txd19ŧŧąąūđcode\txd19_ubv1.2(hcs200)\bc68f3132\key\key.c"
  49  0006  0700     R  	mov a,_Key_IO[0]
  49  0007  0096        	mov [22],a
  50  0008              #line 50 "c:\users\asus\desktop\yeh\rf_control\txd19\txd19ŧŧąąūđcode\txd19_ubv1.2(hcs200)\bc68f3132\key\key.c"
  50  0008  0700     R  	mov a,_Key_IO[0]
  50  0009  0097        	mov [23],a
  52  000A              #line 52 "c:\users\asus\desktop\yeh\rf_control\txd19\txd19ŧŧąąūđcode\txd19_ubv1.2(hcs200)\bc68f3132\key\key.c"
  52  000A  0F7E        	mov a,126
  52  000B  0098        	mov [24],a
  53  000C              #line 53 "c:\users\asus\desktop\yeh\rf_control\txd19\txd19ŧŧąąūđcode\txd19_ubv1.2(hcs200)\bc68f3132\key\key.c"
  53  000C  0F7C        	mov a,124
  53  000D  0099        	mov [25],a
  54  000E              #line 54 "c:\users\asus\desktop\yeh\rf_control\txd19\txd19ŧŧąąūđcode\txd19_ubv1.2(hcs200)\bc68f3132\key\key.c"
  54  000E  0F7C        	mov a,124
  54  000F  009A        	mov [26],a
"File: key.c         Assembler  Version HGASM0202      Page 3

  56  0010              #line 56 "c:\users\asus\desktop\yeh\rf_control\txd19\txd19ŧŧąąūđcode\txd19_ubv1.2(hcs200)\bc68f3132\key\key.c"
  56  0010  0F28        	mov a,40
  56  0011  0080     R  	mov _KeyDebounceTime[0],a
  56  0012  0003        	ret
  56  0013              _Key_Init endp
  56  0013              #line 56 "c:\users\asus\desktop\yeh\rf_control\txd19\txd19ŧŧąąūđcode\txd19_ubv1.2(hcs200)\bc68f3132\key\key.c"
  56  0013              #pragma debug scope 1 1
  56  0013              public _CheckKeyStart
  56  0013              #pragma debug scope 4 1
  94  0013              #line 94 "c:\users\asus\desktop\yeh\rf_control\txd19\txd19ŧŧąąūđcode\txd19_ubv1.2(hcs200)\bc68f3132\key\key.c"
  94  0000              _CheckKeyStart .section 'code'
  94  0000              _CheckKeyStart proc
  94  0000  00              local _CheckKeyStart_2 db 1 dup(?)	; 0,1
  94  0001              #pragma debug variable 8 4 _CheckKeyStart_2+0 "m_buff"
  96  0001              #line 96 "c:\users\asus\desktop\yeh\rf_control\txd19\txd19ŧŧąąūđcode\txd19_ubv1.2(hcs200)\bc68f3132\key\key.c"
  96  0000  1F00     R  	clr _CheckKeyStart_2[0]
  99  0001              #line 99 "c:\users\asus\desktop\yeh\rf_control\txd19\txd19ŧŧąąūđcode\txd19_ubv1.2(hcs200)\bc68f3132\key\key.c"
  99  0001  1F00     R  	clr _x[0]
 100  0002              #line 100 "c:\users\asus\desktop\yeh\rf_control\txd19\txd19ŧŧąąūđcode\txd19_ubv1.2(hcs200)\bc68f3132\key\key.c"
 100  0002  3F94        	sz [20].7
 100  0003  2800     R  	jmp _L4
 102  0004              #line 102 "c:\users\asus\desktop\yeh\rf_control\txd19\txd19ŧŧąąūđcode\txd19_ubv1.2(hcs200)\bc68f3132\key\key.c"
 102  0004  0F06        	mov a,6
 102  0005  0580     R  	orm a,_x[0]
 103  0006              #line 103 "c:\users\asus\desktop\yeh\rf_control\txd19\txd19ŧŧąąūđcode\txd19_ubv1.2(hcs200)\bc68f3132\key\key.c"
 103  0006  0F01        	mov a,1
 103  0007  0080     R  	mov _CheckKeyStart_2[0],a
 103  0008              _L4:
 105  0008              #line 105 "c:\users\asus\desktop\yeh\rf_control\txd19\txd19ŧŧąąūđcode\txd19_ubv1.2(hcs200)\bc68f3132\key\key.c"
 105  0008  3E14        	sz [20].4
 105  0009  2800     R  	jmp _L5
 107  000A              #line 107 "c:\users\asus\desktop\yeh\rf_control\txd19\txd19ŧŧąąūđcode\txd19_ubv1.2(hcs200)\bc68f3132\key\key.c"
 107  000A  3000     R  	set _x[0].2
 108  000B              #line 108 "c:\users\asus\desktop\yeh\rf_control\txd19\txd19ŧŧąąūđcode\txd19_ubv1.2(hcs200)\bc68f3132\key\key.c"
 108  000B  0F01        	mov a,1
 108  000C  0080     R  	mov _CheckKeyStart_2[0],a
 108  000D              _L5:
 110  000D              #line 110 "c:\users\asus\desktop\yeh\rf_control\txd19\txd19ŧŧąąūđcode\txd19_ubv1.2(hcs200)\bc68f3132\key\key.c"
 110  000D  3E94        	sz [20].5
 110  000E  2800     R  	jmp _L6
 112  000F              #line 112 "c:\users\asus\desktop\yeh\rf_control\txd19\txd19ŧŧąąūđcode\txd19_ubv1.2(hcs200)\bc68f3132\key\key.c"
 112  000F  3000     R  	set _x[0].3
 113  0010              #line 113 "c:\users\asus\desktop\yeh\rf_control\txd19\txd19ŧŧąąūđcode\txd19_ubv1.2(hcs200)\bc68f3132\key\key.c"
 113  0010  0F01        	mov a,1
 113  0011  0080     R  	mov _CheckKeyStart_2[0],a
 113  0012              _L6:
 115  0012              #line 115 "c:\users\asus\desktop\yeh\rf_control\txd19\txd19ŧŧąąūđcode\txd19_ubv1.2(hcs200)\bc68f3132\key\key.c"
 115  0012  3F14        	sz [20].6
 115  0013  2800     R  	jmp _L7
 117  0014              #line 117 "c:\users\asus\desktop\yeh\rf_control\txd19\txd19ŧŧąąūđcode\txd19_ubv1.2(hcs200)\bc68f3132\key\key.c"
 117  0014  3000     R  	set _x[0].1
 118  0015              #line 118 "c:\users\asus\desktop\yeh\rf_control\txd19\txd19ŧŧąąūđcode\txd19_ubv1.2(hcs200)\bc68f3132\key\key.c"
 118  0015  0F01        	mov a,1
 118  0016  0080     R  	mov _CheckKeyStart_2[0],a
 118  0017              _L7:
 120  0017              #line 120 "c:\users\asus\desktop\yeh\rf_control\txd19\txd19ŧŧąąūđcode\txd19_ubv1.2(hcs200)\bc68f3132\key\key.c"
 120  0017  0714        	mov a,[20]
 120  0018  0080     E  	mov ra,a
 125  0019              #line 125 "c:\users\asus\desktop\yeh\rf_control\txd19\txd19ŧŧąąūđcode\txd19_ubv1.2(hcs200)\bc68f3132\key\key.c"
 125  0019  0714        	mov a,[20]
"File: key.c         Assembler  Version HGASM0202      Page 4

 125  001A  0080     E  	mov ra,a
 130  001B              #line 130 "c:\users\asus\desktop\yeh\rf_control\txd19\txd19ŧŧąąūđcode\txd19_ubv1.2(hcs200)\bc68f3132\key\key.c"
 130  001B  0714        	mov a,[20]
 130  001C  0080     E  	mov ra,a
 135  001D              #line 135 "c:\users\asus\desktop\yeh\rf_control\txd19\txd19ŧŧąąūđcode\txd19_ubv1.2(hcs200)\bc68f3132\key\key.c"
 135  001D  0714        	mov a,[20]
 135  001E  0080     E  	mov ra,a
 284  001F              #line 284 "c:\users\asus\desktop\yeh\rf_control\txd19\txd19ŧŧąąūđcode\txd19_ubv1.2(hcs200)\bc68f3132\key\key.c"
 284  001F  0700     R  	mov a,_CheckKeyStart_2[0]
 284  0020  0080     E  	mov ra,a
 285  0021              #line 285 "c:\users\asus\desktop\yeh\rf_control\txd19\txd19ŧŧąąūđcode\txd19_ubv1.2(hcs200)\bc68f3132\key\key.c"
 285  0021  0700     E  	mov a,ra
 285  0022  0003        	ret
 285  0023              _CheckKeyStart endp
 285  0023              #line 285 "c:\users\asus\desktop\yeh\rf_control\txd19\txd19ŧŧąąūđcode\txd19_ubv1.2(hcs200)\bc68f3132\key\key.c"
 285  0023              #pragma debug scope 1 1
 285  0023              public _CheckKeyStatus
 285  0023              #pragma debug scope 5 1
 288  0023              #line 288 "c:\users\asus\desktop\yeh\rf_control\txd19\txd19ŧŧąąūđcode\txd19_ubv1.2(hcs200)\bc68f3132\key\key.c"
 288  0000              _CheckKeyStatus .section 'code'
 288  0000              _CheckKeyStatus proc
 288  0000  00              local _CheckKeyStatus_2 db 1 dup(?)	; 0,1
 288  0001              #pragma debug variable 8 5 _CheckKeyStatus_2+0 "m_buff1"
 291  0001              #line 291 "c:\users\asus\desktop\yeh\rf_control\txd19\txd19ŧŧąąūđcode\txd19_ubv1.2(hcs200)\bc68f3132\key\key.c"
 291  0000  2000     R  	call _CheckKeyStart
 291  0001  0080     E  	mov ra,a
 291  0002  0700     E  	mov a,ra
 291  0003  0080     R  	mov _CheckKeyStatus_2[0],a
 292  0004              #line 292 "c:\users\asus\desktop\yeh\rf_control\txd19\txd19ŧŧąąūđcode\txd19_ubv1.2(hcs200)\bc68f3132\key\key.c"
 292  0004  1080     R  	sz _CheckKeyStatus_2[0]
 292  0005  2800     R  	jmp _LI1
 292  0006  2800     R  	jmp _L10
 292  0007              _LI1:
 295  0007              #line 295 "c:\users\asus\desktop\yeh\rf_control\txd19\txd19ŧŧąąūđcode\txd19_ubv1.2(hcs200)\bc68f3132\key\key.c"
 295  0007  0700     R  	mov a,_x[0]
 295  0008  0200     R  	sub a,_KeyCurrentStatus[0]
 295  0009  390A        	snz z
 295  000A  2800     R  	jmp _L11
 295  000B  3800     R  	snz _fkeyrelse
 295  000C  2800     R  	jmp _L12
 295  000D              _L11:
 297  000D              #line 297 "c:\users\asus\desktop\yeh\rf_control\txd19\txd19ŧŧąąūđcode\txd19_ubv1.2(hcs200)\bc68f3132\key\key.c"
 297  000D  0700     R  	mov a,_x[0]
 297  000E  0080     R  	mov _KeyCurrentStatus[0],a
 298  000F              #line 298 "c:\users\asus\desktop\yeh\rf_control\txd19\txd19ŧŧąąūđcode\txd19_ubv1.2(hcs200)\bc68f3132\key\key.c"
 298  000F  3800     E  	snz _FLAG1[0].5
 298  0010  2800     R  	jmp _L13
 299  0011              #line 299 "c:\users\asus\desktop\yeh\rf_control\txd19\txd19ŧŧąąūđcode\txd19_ubv1.2(hcs200)\bc68f3132\key\key.c"
 299  0011  0F0F        	mov a,15
 299  0012  0080     R  	mov _KeyDebounceTime[0],a
 299  0013  2800     R  	jmp _L14
 299  0014              _L13:
 301  0014              #line 301 "c:\users\asus\desktop\yeh\rf_control\txd19\txd19ŧŧąąūđcode\txd19_ubv1.2(hcs200)\bc68f3132\key\key.c"
 301  0014  0F28        	mov a,40
 301  0015  0080     R  	mov _KeyDebounceTime[0],a
 301  0016              _L14:
 302  0016              #line 302 "c:\users\asus\desktop\yeh\rf_control\txd19\txd19ŧŧąąūđcode\txd19_ubv1.2(hcs200)\bc68f3132\key\key.c"
 302  0016  3400     R  	clr _fkeyrelse
 302  0017  2800     R  	jmp _L17
 302  0018              _L12:
"File: key.c         Assembler  Version HGASM0202      Page 5

 308  0018              #line 308 "c:\users\asus\desktop\yeh\rf_control\txd19\txd19ŧŧąąūđcode\txd19_ubv1.2(hcs200)\bc68f3132\key\key.c"
 308  0018  1080     R  	sz _KeyDebounceTime[0]
 308  0019  2800     R  	jmp _LI2
 308  001A  2800     R  	jmp _L16
 308  001B              _LI2:
 310  001B              #line 310 "c:\users\asus\desktop\yeh\rf_control\txd19\txd19ŧŧąąūđcode\txd19_ubv1.2(hcs200)\bc68f3132\key\key.c"
 310  001B  1580     R  	dec _KeyDebounceTime[0]
 310  001C  2800     R  	jmp _L17
 310  001D              _L10:
 317  001D              #line 317 "c:\users\asus\desktop\yeh\rf_control\txd19\txd19ŧŧąąūđcode\txd19_ubv1.2(hcs200)\bc68f3132\key\key.c"
 317  001D  3000     R  	set _fkeyrelse
 317  001E              _L17:
 319  001E              #line 319 "c:\users\asus\desktop\yeh\rf_control\txd19\txd19ŧŧąąūđcode\txd19_ubv1.2(hcs200)\bc68f3132\key\key.c"
 319  001E  1F00     E  	clr ra
 319  001F  2800     R  	jmp _L15
 319  0020              _L16:
 313  0020              #line 313 "c:\users\asus\desktop\yeh\rf_control\txd19\txd19ŧŧąąūđcode\txd19_ubv1.2(hcs200)\bc68f3132\key\key.c"
 313  0020  0F01        	mov a,1
 313  0021  0080     E  	mov ra,a
 313  0022              _L15:
 320  0022              #line 320 "c:\users\asus\desktop\yeh\rf_control\txd19\txd19ŧŧąąūđcode\txd19_ubv1.2(hcs200)\bc68f3132\key\key.c"
 320  0022  0700     E  	mov a,ra
 320  0023  0003        	ret
 320  0024              _CheckKeyStatus endp
 320  0024              #line 320 "c:\users\asus\desktop\yeh\rf_control\txd19\txd19ŧŧąąūđcode\txd19_ubv1.2(hcs200)\bc68f3132\key\key.c"
 320  0024              #pragma debug scope 1 1
 320  0024              public _delay
 320  0024              #pragma debug scope 6 1
 326  0024              #line 326 "c:\users\asus\desktop\yeh\rf_control\txd19\txd19ŧŧąąūđcode\txd19_ubv1.2(hcs200)\bc68f3132\key\key.c"
 326  0000              _delay .section 'code'
 326  0000              _delay proc
 326  0000  00              local _delay_2 db 1 dup(?)	; 0,1
 326  0001              #pragma debug variable 8 6 _delay_2+0 "i"
 328  0001              #line 328 "c:\users\asus\desktop\yeh\rf_control\txd19\txd19ŧŧąąūđcode\txd19_ubv1.2(hcs200)\bc68f3132\key\key.c"
 328  0000  1F00     R  	clr _delay_2[0]
 328  0001  2800     R  	jmp _L19
 328  0002              _L20:
 329  0002              #line 329 "c:\users\asus\desktop\yeh\rf_control\txd19\txd19ŧŧąąūđcode\txd19_ubv1.2(hcs200)\bc68f3132\key\key.c"
 329  0002              ;# 329 "c:\users\asus\desktop\yeh\rf_control\txd19\txd19ŧŧąąūđcode\txd19_ubv1.2(hcs200)\bc68f3132\key\key.c" 1
 329  0002  0000        	nop
 328  0003              #line 328 "c:\users\asus\desktop\yeh\rf_control\txd19\txd19ŧŧąąūđcode\txd19_ubv1.2(hcs200)\bc68f3132\key\key.c"
 328  0003  1480     R  	inc _delay_2[0]
 328  0004              _L19:
 328  0004  0F09        	mov a,9
 328  0005  0200     R  	sub a,_delay_2[0]
 328  0006  3C0A        	sz c
 328  0007  2800     R  	jmp _L20
 328  0008  0003        	ret
 328  0009              _delay endp
 328  0009              #line 328 "c:\users\asus\desktop\yeh\rf_control\txd19\txd19ŧŧąąūđcode\txd19_ubv1.2(hcs200)\bc68f3132\key\key.c"
 328  0009              #pragma debug scope 1 1
  21  0009              #line 21 "c:\users\asus\desktop\yeh\rf_control\txd19\txd19ŧŧąąūđcode\txd19_ubv1.2(hcs200)\bc68f3132\key\key.c"
  21  0009              public _fkeyrelse
  21  0000              @BITDATASEC .section 'data'
  21  0000  00          _fkeyrelse	dbit 0
  21  0001              #pragma debug variable 2 1 _fkeyrelse "fkeyrelse"
  21  0001              
  21  0000              @HCCINIT .section 'data'
  20  0000              #line 20 "c:\users\asus\desktop\yeh\rf_control\txd19\txd19ŧŧąąūđcode\txd19_ubv1.2(hcs200)\bc68f3132\key\key.c"
  20  0000              public _Matrix_IO
"File: key.c         Assembler  Version HGASM0202      Page 6

  20  0000              @HCCINIT0 .section 'data'
  20  0000              _Matrix_IO	db 0
  20  0001              #pragma debug struct_end
  20  0001              #pragma debug struct_end
  20  0001              #pragma debug union_end
  20  0001              #pragma debug union_end
  20  0001              #pragma debug variable 43 1 _Matrix_IO "Matrix_IO"
  20  0001              
  20  0000              @HCCINIT .section 'data'
  20  0000              #line 20 "c:\users\asus\desktop\yeh\rf_control\txd19\txd19ŧŧąąūđcode\txd19_ubv1.2(hcs200)\bc68f3132\key\key.c"
  20  0000              public _Key_IO
  20  0001              @HCCINIT0 .section 'data'
  20  0001              _Key_IO	db 0
  20  0002              #pragma debug variable 43 1 _Key_IO "Key_IO"
  20  0002              
  20  0000              @HCCINIT .section 'data'
  19  0000              #line 19 "c:\users\asus\desktop\yeh\rf_control\txd19\txd19ŧŧąąūđcode\txd19_ubv1.2(hcs200)\bc68f3132\key\key.c"
  19  0000              public _x
  19  0002              @HCCINIT0 .section 'data'
  19  0002              _x	db 0
  19  0003              #pragma debug variable 43 1 _x "x"
  19  0003              
  19  0000              @HCCINIT .section 'data'
  17  0000              #line 17 "c:\users\asus\desktop\yeh\rf_control\txd19\txd19ŧŧąąūđcode\txd19_ubv1.2(hcs200)\bc68f3132\key\key.c"
  17  0000              public _KeyCurrentStatus
  17  0003              @HCCINIT0 .section 'data'
  17  0003              _KeyCurrentStatus	db 0
  17  0004              #pragma debug variable 8 1 _KeyCurrentStatus "KeyCurrentStatus"
  17  0004              
  17  0000              @HCCINIT .section 'data'
  16  0000              #line 16 "c:\users\asus\desktop\yeh\rf_control\txd19\txd19ŧŧąąūđcode\txd19_ubv1.2(hcs200)\bc68f3132\key\key.c"
  16  0000              public _KeyRepeatTime
  16  0004              @HCCINIT0 .section 'data'
  16  0004              _KeyRepeatTime	db 0
  16  0005              #pragma debug variable 8 1 _KeyRepeatTime "KeyRepeatTime"
  16  0005              
  16  0000              @HCCINIT .section 'data'
  15  0000              #line 15 "c:\users\asus\desktop\yeh\rf_control\txd19\txd19ŧŧąąūđcode\txd19_ubv1.2(hcs200)\bc68f3132\key\key.c"
  15  0000              public _KeyDebounceTime
  15  0005              @HCCINIT0 .section 'data'
  15  0005              _KeyDebounceTime	db 0
  15  0006              #pragma debug variable 8 1 _KeyDebounceTime "KeyDebounceTime"
  15  0006              
  15  0000              @HCCINIT .section 'data'
  15  0000              #pragma debug struct_end
  15  0000              #pragma debug struct_end
  15  0000              #pragma debug union_end
  15  0000              #pragma debug union_end
  15  0000              #pragma debug variable 45 1 ___pa "__pa" 1
  15  0000              #pragma debug struct_end
  15  0000              #pragma debug struct_end
  15  0000              #pragma debug union_end
  15  0000              #pragma debug union_end
  15  0000              #pragma debug variable 47 1 ___pac "__pac" 1
  15  0000              #pragma debug struct_end
  15  0000              #pragma debug struct_end
  15  0000              #pragma debug union_end
  15  0000              #pragma debug union_end
  15  0000              #pragma debug variable 49 1 ___papu "__papu" 1
  15  0000              #pragma debug struct_end
"File: key.c         Assembler  Version HGASM0202      Page 7

  15  0000              #pragma debug struct_end
  15  0000              #pragma debug union_end
  15  0000              #pragma debug union_end
  15  0000              #pragma debug variable 51 1 ___pawu "__pawu" 1
  15  0000              #pragma debug struct_end
  15  0000              #pragma debug struct_end
  15  0000              #pragma debug union_end
  15  0000              #pragma debug union_end
  15  0000              #pragma debug variable 53 1 ___pb "__pb" 1
  15  0000              #pragma debug struct_end
  15  0000              #pragma debug struct_end
  15  0000              #pragma debug union_end
  15  0000              #pragma debug union_end
  15  0000              #pragma debug variable 55 1 ___pbc "__pbc" 1
  15  0000              #pragma debug struct_end
  15  0000              #pragma debug struct_end
  15  0000              #pragma debug union_end
  15  0000              #pragma debug union_end
  15  0000              #pragma debug variable 57 1 ___pbpu "__pbpu" 1
  15  0000              
  15  0000              ; output external variables
  15  0000              extern _FLAG1:byte
  15  0000              
  15  0000              ; 
  15  0000              ; Generated by holtek-gcc v3.19, Thu Nov 06 10:43:27 2025
  15  0000              ; Rebuild 718
  15  0000              ; end of file


        0 Errors, 0