"File: main.c        Assembler  Version HGASM0202      Page 1


   1  0000              ; Generated by holtek-gcc v3.19, Thu Nov 06 10:43:28 2025
   2  0000              ; 
   3  0000              ; Configuration:
   4  0000              ;       without long instruction
   5  0000              ;       Single ROM, Multi-RAM
   6  0000              ;       bits_per_rom_unit:15
   7  0000              ;       with mp1
   8  0000              ;       with tbhp, address(0x9)
   9  0000              ;          Use ret-const
  10  0000              ;       
  11  0000              ;       
  12  0000              ;       
  13  0000              ; use 'tabrdc' instead of 'tabrd'
  14  0000              ;       
  15  0000              
  16  0000              #pragma translator "holtek-gcc 4.6.4" "3.19" "build 20130711"
  17  0000              ; Rebuild 718
  18  0000              
  19  0000              ir equ [2]
  20  0000              mp equ [3]
  21  0000              sbp equ [7]
  22  0000              acc equ [5]
  23  0000              bp equ [4]
  24  0000              status equ [10]
  25  0000              c equ [10].0
  26  0000              ac equ [10].1
  27  0000              z equ [10].2
  28  0000              ov equ [10].3
  29  0000              intc equ [11]
  30  0000              
  31  0000              extern ra:byte
  32  0000              extern rb:byte
  33  0000              extern rc:byte
  34  0000              extern rd:byte
  35  0000              extern re:byte
  36  0000              extern rf:byte
  37  0000              extern rg:byte
  38  0000              extern rh:byte
  39  0000              extern _Crom2Prom:near
  40  0000              extern _Crom2PromNext:near
  41  0000              
  42  0000              RAMBANK 0 @HCCINIT, @HCCINIT0
  43  0000              
  44  0000              RAMBANK 0 @BITDATASEC, @BITDATASEC1
  45  0000              @HCCINIT	.section 'data'
  46  0000              @HCCINIT0	.section 'data'
  47  0000              @BITDATASEC	 .section 'data'
  48  0000              @BITDATASEC1	 .section 'data'
  49  0000              
  50  0000              #pragma debug scope 1 1
  51  0000              	extern __DELAY3:near
  52  0000              	extern __DELAYX3:near
  53  0000              	extern __DELAYX6:near
  54  0000              	extern __DELAYY5:near
  55  0000              	extern __DELAYY3:near
  56  0000              	extern _builtin_holtek_delay_2:byte
  57  0000              ___bp equ [4]
  58  0000              ___mp1 equ [3]
  59  0000              ___tblp equ [7]
"File: main.ASM      Assembler  Version HGASM0202      Page 2

  60  0000              ___iar1 equ [2]
  61  0000              public _RAM_CLR
  62  0000              #pragma debug scope 2 1

 331  0000              #line 331 "c:\users\asus\desktop\yeh\rf_control\txd19\txd19ŧŧąąūđcode\txd19_ubv1.2(hcs200)\bc68f3132\BC68F3132_hopping_code\main.c"
 331  0000              _RAM_CLR .section 'code'
 331  0000              _RAM_CLR proc
 332  0000              #line 332 "c:\users\asus\desktop\yeh\rf_control\txd19\txd19ŧŧąąūđcode\txd19_ubv1.2(hcs200)\bc68f3132\BC68F3132_hopping_code\main.c"
 332  0000  1F04        	clr [4]
 333  0001              #line 333 "c:\users\asus\desktop\yeh\rf_control\txd19\txd19ŧŧąąūđcode\txd19_ubv1.2(hcs200)\bc68f3132\BC68F3132_hopping_code\main.c"
 333  0001  0F80        	mov a,128
 333  0002  0083        	mov [3],a
 334  0003              #line 334 "c:\users\asus\desktop\yeh\rf_control\txd19\txd19ŧŧąąūđcode\txd19_ubv1.2(hcs200)\bc68f3132\BC68F3132_hopping_code\main.c"
 334  0003  0F80        	mov a,128
 334  0004  0087        	mov [7],a
 334  0005  2800     R  	jmp _L2
 334  0006              _L3:
 336  0006              #line 336 "c:\users\asus\desktop\yeh\rf_control\txd19\txd19ŧŧąąūđcode\txd19_ubv1.2(hcs200)\bc68f3132\BC68F3132_hopping_code\main.c"
 336  0006  1F02        	clr [2]
 337  0007              #line 337 "c:\users\asus\desktop\yeh\rf_control\txd19\txd19ŧŧąąūđcode\txd19_ubv1.2(hcs200)\bc68f3132\BC68F3132_hopping_code\main.c"
 337  0007  1483        	inc [3]
 334  0008              #line 334 "c:\users\asus\desktop\yeh\rf_control\txd19\txd19ŧŧąąūđcode\txd19_ubv1.2(hcs200)\bc68f3132\BC68F3132_hopping_code\main.c"
 334  0008  1587        	dec [7]
 334  0009              _L2:
 334  0009  1087        	sz [7]
 334  000A  2800     R  	jmp _L3
 334  000B  0003        	ret
 334  000C              _RAM_CLR endp
 334  000C              #line 334 "c:\users\asus\desktop\yeh\rf_control\txd19\txd19ŧŧąąūđcode\txd19_ubv1.2(hcs200)\bc68f3132\BC68F3132_hopping_code\main.c"
 334  000C              #pragma debug scope 1 1
 334  000C              ___pas0 equ [84]
 334  000C              ___pas1 equ [85]
 334  000C              ___pbs1 equ [87]
 334  000C              public _IO_Init
 334  000C              #pragma debug scope 3 1
 345  000C              #line 345 "c:\users\asus\desktop\yeh\rf_control\txd19\txd19ŧŧąąūđcode\txd19_ubv1.2(hcs200)\bc68f3132\BC68F3132_hopping_code\main.c"
 345  0000              _IO_Init .section 'code'
 345  0000              _IO_Init proc
 346  0000              #line 346 "c:\users\asus\desktop\yeh\rf_control\txd19\txd19ŧŧąąūđcode\txd19_ubv1.2(hcs200)\bc68f3132\BC68F3132_hopping_code\main.c"
 346  0000  1F54        	clr [84]
 347  0001              #line 347 "c:\users\asus\desktop\yeh\rf_control\txd19\txd19ŧŧąąūđcode\txd19_ubv1.2(hcs200)\bc68f3132\BC68F3132_hopping_code\main.c"
 347  0001  1F55        	clr [85]
 348  0002              #line 348 "c:\users\asus\desktop\yeh\rf_control\txd19\txd19ŧŧąąūđcode\txd19_ubv1.2(hcs200)\bc68f3132\BC68F3132_hopping_code\main.c"
 348  0002  1F57        	clr [87]
 348  0003  0003        	ret
 348  0004              _IO_Init endp
 348  0004              #line 348 "c:\users\asus\desktop\yeh\rf_control\txd19\txd19ŧŧąąūđcode\txd19_ubv1.2(hcs200)\bc68f3132\BC68F3132_hopping_code\main.c"
 348  0004              #pragma debug scope 1 1
 348  0004              ___pscr equ [29]
 348  0004              ___tb0c equ [33]
 348  0004              ___intc0 equ [35]
 348  0004              ___tb1c equ [34]
 348  0004              ___intc1 equ [36]
 348  0004              public _TBx_Init
 348  0004              #pragma debug scope 4 1
 355  0004              #line 355 "c:\users\asus\desktop\yeh\rf_control\txd19\txd19ŧŧąąūđcode\txd19_ubv1.2(hcs200)\bc68f3132\BC68F3132_hopping_code\main.c"
 355  0000              _TBx_Init .section 'code'
 355  0000              _TBx_Init proc
 357  0000              #line 357 "c:\users\asus\desktop\yeh\rf_control\txd19\txd19ŧŧąąūđcode\txd19_ubv1.2(hcs200)\bc68f3132\BC68F3132_hopping_code\main.c"
 357  0000  0F01        	mov a,1
"File: main.c        Assembler  Version HGASM0202      Page 3

 357  0001  009D        	mov [29],a
 358  0002              #line 358 "c:\users\asus\desktop\yeh\rf_control\txd19\txd19ŧŧąąūđcode\txd19_ubv1.2(hcs200)\bc68f3132\BC68F3132_hopping_code\main.c"
 358  0002  0F03        	mov a,3
 358  0003  00A1        	mov [33],a
 359  0004              #line 359 "c:\users\asus\desktop\yeh\rf_control\txd19\txd19ŧŧąąūđcode\txd19_ubv1.2(hcs200)\bc68f3132\BC68F3132_hopping_code\main.c"
 359  0004  31A3        	set [35].3
 360  0005              #line 360 "c:\users\asus\desktop\yeh\rf_control\txd19\txd19ŧŧąąūđcode\txd19_ubv1.2(hcs200)\bc68f3132\BC68F3132_hopping_code\main.c"
 360  0005  33A1        	set [33].7
 362  0006              #line 362 "c:\users\asus\desktop\yeh\rf_control\txd19\txd19ŧŧąąūđcode\txd19_ubv1.2(hcs200)\bc68f3132\BC68F3132_hopping_code\main.c"
 362  0006  0F02        	mov a,2
 362  0007  00A2        	mov [34],a
 363  0008              #line 363 "c:\users\asus\desktop\yeh\rf_control\txd19\txd19ŧŧąąūđcode\txd19_ubv1.2(hcs200)\bc68f3132\BC68F3132_hopping_code\main.c"
 363  0008  3024        	set [36].0
 364  0009              #line 364 "c:\users\asus\desktop\yeh\rf_control\txd19\txd19ŧŧąąūđcode\txd19_ubv1.2(hcs200)\bc68f3132\BC68F3132_hopping_code\main.c"
 364  0009  33A2        	set [34].7
 365  000A              #line 365 "c:\users\asus\desktop\yeh\rf_control\txd19\txd19ŧŧąąūđcode\txd19_ubv1.2(hcs200)\bc68f3132\BC68F3132_hopping_code\main.c"
 365  000A  0F01        	mov a,1
 365  000B  0080     E  	mov _MBUF[0],a
 365  000C  0003        	ret
 365  000D              _TBx_Init endp
 365  000D              #line 365 "c:\users\asus\desktop\yeh\rf_control\txd19\txd19ŧŧąąūđcode\txd19_ubv1.2(hcs200)\bc68f3132\BC68F3132_hopping_code\main.c"
 365  000D              #pragma debug scope 1 1
 365  000D              ___eea equ [30]
 365  000D              ___eed equ [31]
 365  000D              public _EEPROM_WR
 365  000D              #pragma debug scope 5 1
 373  000D              #line 373 "c:\users\asus\desktop\yeh\rf_control\txd19\txd19ŧŧąąūđcode\txd19_ubv1.2(hcs200)\bc68f3132\BC68F3132_hopping_code\main.c"
 373  0000              _EEPROM_WR .section 'code'
 373  0000              _EEPROM_WR proc
 373  0000              public _EEPROM_WR_2
 373  0000  0002[           local _EEPROM_WR_2 db 2 dup(?)	; 1,1
            00
            ]
 373  0000  0080     E  	mov ra,a
 373  0001  0080     R  	mov _EEPROM_WR_2[1],a
 373  0002              #pragma debug variable 8 5 _EEPROM_WR_2+1 "EEPROM_ADDR"
 373  0002              #pragma debug variable 8 5 _EEPROM_WR_2+0 "DATA"
 374  0002              #line 374 "c:\users\asus\desktop\yeh\rf_control\txd19\txd19ŧŧąąūđcode\txd19_ubv1.2(hcs200)\bc68f3132\BC68F3132_hopping_code\main.c"
 374  0002  0700     E  	mov a,ra
 374  0003  009E        	mov [30],a
 375  0004              #line 375 "c:\users\asus\desktop\yeh\rf_control\txd19\txd19ŧŧąąūđcode\txd19_ubv1.2(hcs200)\bc68f3132\BC68F3132_hopping_code\main.c"
 375  0004  0700     R  	mov a,_EEPROM_WR_2[0]
 375  0005  009F        	mov [31],a
 376  0006              #line 376 "c:\users\asus\desktop\yeh\rf_control\txd19\txd19ŧŧąąūđcode\txd19_ubv1.2(hcs200)\bc68f3132\BC68F3132_hopping_code\main.c"
 376  0006  0F01        	mov a,1
 376  0007  0084        	mov [4],a
 377  0008              #line 377 "c:\users\asus\desktop\yeh\rf_control\txd19\txd19ŧŧąąūđcode\txd19_ubv1.2(hcs200)\bc68f3132\BC68F3132_hopping_code\main.c"
 377  0008  0F40        	mov a,64
 377  0009  0083        	mov [3],a
 378  000A              #line 378 "c:\users\asus\desktop\yeh\rf_control\txd19\txd19ŧŧąąūđcode\txd19_ubv1.2(hcs200)\bc68f3132\BC68F3132_hopping_code\main.c"
 378  000A  3182        	set [2].3
 379  000B              #line 379 "c:\users\asus\desktop\yeh\rf_control\txd19\txd19ŧŧąąūđcode\txd19_ubv1.2(hcs200)\bc68f3132\BC68F3132_hopping_code\main.c"
 379  000B  3102        	set [2].2
 379  000C              _L8:
 381  000C              #line 381 "c:\users\asus\desktop\yeh\rf_control\txd19\txd19ŧŧąąūđcode\txd19_ubv1.2(hcs200)\bc68f3132\BC68F3132_hopping_code\main.c"
 381  000C  3902        	snz [2].2
 381  000D  2800     R  	jmp _L10
 383  000E              #line 383 "c:\users\asus\desktop\yeh\rf_control\txd19\txd19ŧŧąąūđcode\txd19_ubv1.2(hcs200)\bc68f3132\BC68F3132_hopping_code\main.c"
 383  000E              ;# 383 "c:\users\asus\desktop\yeh\rf_control\txd19\txd19ŧŧąąūđcode\txd19_ubv1.2(hcs200)\bc68f3132\BC68F3132_hopping_code\main.c" 1
 383  000E  0001        	clr wdt
"File: main.c        Assembler  Version HGASM0202      Page 4

 383  000F  2800     R  	jmp _L8
 383  0010              _L10:
 386  0010              #line 386 "c:\users\asus\desktop\yeh\rf_control\txd19\txd19ŧŧąąūđcode\txd19_ubv1.2(hcs200)\bc68f3132\BC68F3132_hopping_code\main.c"
 386  0010  1F02        	clr [2]
 387  0011              #line 387 "c:\users\asus\desktop\yeh\rf_control\txd19\txd19ŧŧąąūđcode\txd19_ubv1.2(hcs200)\bc68f3132\BC68F3132_hopping_code\main.c"
 387  0011  3404        	clr [4].0
 387  0012  0003        	ret
 387  0013              _EEPROM_WR endp
 387  0013              #line 387 "c:\users\asus\desktop\yeh\rf_control\txd19\txd19ŧŧąąūđcode\txd19_ubv1.2(hcs200)\bc68f3132\BC68F3132_hopping_code\main.c"
 387  0013              #pragma debug scope 1 1
 387  0013              public _EEPROM_RD
 387  0013              #pragma debug scope 6 1
 397  0013              #line 397 "c:\users\asus\desktop\yeh\rf_control\txd19\txd19ŧŧąąūđcode\txd19_ubv1.2(hcs200)\bc68f3132\BC68F3132_hopping_code\main.c"
 397  0000              _EEPROM_RD .section 'code'
 397  0000              _EEPROM_RD proc
 397  0000  0002[           local _EEPROM_RD_2 db 2 dup(?)	; 0,2
            00
            ]
 397  0000  0080     E  	mov ra,a
 397  0001  0080     R  	mov _EEPROM_RD_2[1],a
 397  0002              #pragma debug variable 8 6 _EEPROM_RD_2+1 "EEPRON_ADDR"
 397  0002              #pragma debug variable 8 6 _EEPROM_RD_2+0 "tData"
 400  0002              #line 400 "c:\users\asus\desktop\yeh\rf_control\txd19\txd19ŧŧąąūđcode\txd19_ubv1.2(hcs200)\bc68f3132\BC68F3132_hopping_code\main.c"
 400  0002  0700     E  	mov a,ra
 400  0003  009E        	mov [30],a
 401  0004              #line 401 "c:\users\asus\desktop\yeh\rf_control\txd19\txd19ŧŧąąūđcode\txd19_ubv1.2(hcs200)\bc68f3132\BC68F3132_hopping_code\main.c"
 401  0004  0F40        	mov a,64
 401  0005  0083        	mov [3],a
 402  0006              #line 402 "c:\users\asus\desktop\yeh\rf_control\txd19\txd19ŧŧąąūđcode\txd19_ubv1.2(hcs200)\bc68f3132\BC68F3132_hopping_code\main.c"
 402  0006  0F01        	mov a,1
 402  0007  0084        	mov [4],a
 403  0008              #line 403 "c:\users\asus\desktop\yeh\rf_control\txd19\txd19ŧŧąąūđcode\txd19_ubv1.2(hcs200)\bc68f3132\BC68F3132_hopping_code\main.c"
 403  0008  3423        	clr [35].0
 404  0009              #line 404 "c:\users\asus\desktop\yeh\rf_control\txd19\txd19ŧŧąąūđcode\txd19_ubv1.2(hcs200)\bc68f3132\BC68F3132_hopping_code\main.c"
 404  0009  3082        	set [2].1
 405  000A              #line 405 "c:\users\asus\desktop\yeh\rf_control\txd19\txd19ŧŧąąūđcode\txd19_ubv1.2(hcs200)\bc68f3132\BC68F3132_hopping_code\main.c"
 405  000A  3002        	set [2].0
 405  000B              _L12:
 407  000B              #line 407 "c:\users\asus\desktop\yeh\rf_control\txd19\txd19ŧŧąąūđcode\txd19_ubv1.2(hcs200)\bc68f3132\BC68F3132_hopping_code\main.c"
 407  000B  0702        	mov a,[2]
 407  000C  0E01        	and a,1
 407  000D  0080     E  	mov ra,a
 407  000E  0700     E  	mov a,ra
 407  000F  0082        	mov [2],a
 407  0010  1080     E  	sz ra
 407  0011  2800     R  	jmp _LI1
 407  0012  2800     R  	jmp _L14
 407  0013              _LI1:
 409  0013              #line 409 "c:\users\asus\desktop\yeh\rf_control\txd19\txd19ŧŧąąūđcode\txd19_ubv1.2(hcs200)\bc68f3132\BC68F3132_hopping_code\main.c"
 409  0013              ;# 409 "c:\users\asus\desktop\yeh\rf_control\txd19\txd19ŧŧąąūđcode\txd19_ubv1.2(hcs200)\bc68f3132\BC68F3132_hopping_code\main.c" 1
 409  0013  0001        	clr wdt
 409  0014  2800     R  	jmp _L12
 409  0015              _L14:
 412  0015              #line 412 "c:\users\asus\desktop\yeh\rf_control\txd19\txd19ŧŧąąūđcode\txd19_ubv1.2(hcs200)\bc68f3132\BC68F3132_hopping_code\main.c"
 412  0015  071F        	mov a,[31]
 412  0016  0080     R  	mov _EEPROM_RD_2[0],a
 413  0017              #line 413 "c:\users\asus\desktop\yeh\rf_control\txd19\txd19ŧŧąąūđcode\txd19_ubv1.2(hcs200)\bc68f3132\BC68F3132_hopping_code\main.c"
 413  0017  1F02        	clr [2]
 414  0018              #line 414 "c:\users\asus\desktop\yeh\rf_control\txd19\txd19ŧŧąąūđcode\txd19_ubv1.2(hcs200)\bc68f3132\BC68F3132_hopping_code\main.c"
 414  0018  3404        	clr [4].0
"File: main.c        Assembler  Version HGASM0202      Page 5

 416  0019              #line 416 "c:\users\asus\desktop\yeh\rf_control\txd19\txd19ŧŧąąūđcode\txd19_ubv1.2(hcs200)\bc68f3132\BC68F3132_hopping_code\main.c"
 416  0019  0700     R  	mov a,_EEPROM_RD_2[0]
 416  001A  0080     E  	mov ra,a
 417  001B              #line 417 "c:\users\asus\desktop\yeh\rf_control\txd19\txd19ŧŧąąūđcode\txd19_ubv1.2(hcs200)\bc68f3132\BC68F3132_hopping_code\main.c"
 417  001B  0700     E  	mov a,ra
 417  001C  0003        	ret
 417  001D              _EEPROM_RD endp
 417  001D              #line 417 "c:\users\asus\desktop\yeh\rf_control\txd19\txd19ŧŧąąūđcode\txd19_ubv1.2(hcs200)\bc68f3132\BC68F3132_hopping_code\main.c"
 417  001D              #pragma debug scope 1 1
 417  001D              public _SYNC_Load
 417  001D              #pragma debug scope 7 1
 422  001D              #line 422 "c:\users\asus\desktop\yeh\rf_control\txd19\txd19ŧŧąąūđcode\txd19_ubv1.2(hcs200)\bc68f3132\BC68F3132_hopping_code\main.c"
 422  0000              _SYNC_Load .section 'code'
 422  0000              _SYNC_Load proc
 423  0000              #line 423 "c:\users\asus\desktop\yeh\rf_control\txd19\txd19ŧŧąąūđcode\txd19_ubv1.2(hcs200)\bc68f3132\BC68F3132_hopping_code\main.c"
 423  0000  0F02        	mov a,2
 423  0001  2000     R  	call _EEPROM_RD
 423  0002  0080     E  	mov ra,a
 423  0003  0700     E  	mov a,ra
 423  0004  0ABC        	sub a,188
 423  0005  3D0A        	sz z
 423  0006  2800     R  	jmp _L16
 425  0007              #line 425 "c:\users\asus\desktop\yeh\rf_control\txd19\txd19ŧŧąąūđcode\txd19_ubv1.2(hcs200)\bc68f3132\BC68F3132_hopping_code\main.c"
 425  0007  0FBC        	mov a,188
 425  0008  0080     R  	mov _EEPROM_WR_2[0],a
 425  0009  0F02        	mov a,2
 425  000A  2000     R  	call _EEPROM_WR
 426  000B              #line 426 "c:\users\asus\desktop\yeh\rf_control\txd19\txd19ŧŧąąūđcode\txd19_ubv1.2(hcs200)\bc68f3132\BC68F3132_hopping_code\main.c"
 426  000B  1F00     R  	clr _cSync[0]
 427  000C              #line 427 "c:\users\asus\desktop\yeh\rf_control\txd19\txd19ŧŧąąūđcode\txd19_ubv1.2(hcs200)\bc68f3132\BC68F3132_hopping_code\main.c"
 427  000C  1F00     R  	clr _cSync[1]
 429  000D              #line 429 "c:\users\asus\desktop\yeh\rf_control\txd19\txd19ŧŧąąūđcode\txd19_ubv1.2(hcs200)\bc68f3132\BC68F3132_hopping_code\main.c"
 429  000D  0700     R  	mov a,_cSync[0]
 429  000E  0080     R  	mov _EEPROM_WR_2[0],a
 429  000F  0F00        	mov a,0
 429  0010  2000     R  	call _EEPROM_WR
 430  0011              #line 430 "c:\users\asus\desktop\yeh\rf_control\txd19\txd19ŧŧąąūđcode\txd19_ubv1.2(hcs200)\bc68f3132\BC68F3132_hopping_code\main.c"
 430  0011  0700     R  	mov a,_cSync[1]
 430  0012  0080     R  	mov _EEPROM_WR_2[0],a
 430  0013  0F01        	mov a,1
 430  0014  2000     R  	call _EEPROM_WR
 430  0015  2800     R  	jmp _L15
 430  0016              _L16:
 448  0016              #line 448 "c:\users\asus\desktop\yeh\rf_control\txd19\txd19ŧŧąąūđcode\txd19_ubv1.2(hcs200)\bc68f3132\BC68F3132_hopping_code\main.c"
 448  0016  0F00        	mov a,0
 448  0017  2000     R  	call _EEPROM_RD
 448  0018  0080     E  	mov ra,a
 448  0019  0700     E  	mov a,ra
 448  001A  0080     R  	mov _cSync[0],a
 449  001B              #line 449 "c:\users\asus\desktop\yeh\rf_control\txd19\txd19ŧŧąąūđcode\txd19_ubv1.2(hcs200)\bc68f3132\BC68F3132_hopping_code\main.c"
 449  001B  0F01        	mov a,1
 449  001C  2000     R  	call _EEPROM_RD
 449  001D  0080     E  	mov ra,a
 449  001E  0700     E  	mov a,ra
 449  001F  0080     R  	mov _cSync[1],a
 449  0020              _L15:
 449  0020  0003        	ret
 449  0021              _SYNC_Load endp
 449  0021              #line 449 "c:\users\asus\desktop\yeh\rf_control\txd19\txd19ŧŧąąūđcode\txd19_ubv1.2(hcs200)\bc68f3132\BC68F3132_hopping_code\main.c"
 449  0021              #pragma debug scope 1 1
"File: main.c        Assembler  Version HGASM0202      Page 6

 449  0021              public _SYNC_Save
 449  0021              #pragma debug scope 8 1
 460  0021              #line 460 "c:\users\asus\desktop\yeh\rf_control\txd19\txd19ŧŧąąūđcode\txd19_ubv1.2(hcs200)\bc68f3132\BC68F3132_hopping_code\main.c"
 460  0000              _SYNC_Save .section 'code'
 460  0000              _SYNC_Save proc
 461  0000              #line 461 "c:\users\asus\desktop\yeh\rf_control\txd19\txd19ŧŧąąūđcode\txd19_ubv1.2(hcs200)\bc68f3132\BC68F3132_hopping_code\main.c"
 461  0000  0700     R  	mov a,_cSync[0]
 461  0001  0080     R  	mov _EEPROM_WR_2[0],a
 461  0002  0F00        	mov a,0
 461  0003  2000     R  	call _EEPROM_WR
 462  0004              #line 462 "c:\users\asus\desktop\yeh\rf_control\txd19\txd19ŧŧąąūđcode\txd19_ubv1.2(hcs200)\bc68f3132\BC68F3132_hopping_code\main.c"
 462  0004  0700     R  	mov a,_cSync[1]
 462  0005  0080     R  	mov _EEPROM_WR_2[0],a
 462  0006  0F01        	mov a,1
 462  0007  2000     R  	call _EEPROM_WR
 462  0008  0003        	ret
 462  0009              _SYNC_Save endp
 462  0009              #line 462 "c:\users\asus\desktop\yeh\rf_control\txd19\txd19ŧŧąąūđcode\txd19_ubv1.2(hcs200)\bc68f3132\BC68F3132_hopping_code\main.c"
 462  0009              #pragma debug scope 1 1
 462  0009              ___pa equ [20]
 462  0009              public _ChangeKeyStatus
 462  0009              #pragma debug scope 9 1
 469  0009              #line 469 "c:\users\asus\desktop\yeh\rf_control\txd19\txd19ŧŧąąūđcode\txd19_ubv1.2(hcs200)\bc68f3132\BC68F3132_hopping_code\main.c"
 469  0000              _ChangeKeyStatus .section 'code'
 469  0000              _ChangeKeyStatus proc
 470  0000              #line 470 "c:\users\asus\desktop\yeh\rf_control\txd19\txd19ŧŧąąūđcode\txd19_ubv1.2(hcs200)\bc68f3132\BC68F3132_hopping_code\main.c"
 470  0000  3F94        	sz [20].7
 470  0001  2800     R  	jmp _L19
 470  0002              #line 470 "c:\users\asus\desktop\yeh\rf_control\txd19\txd19ŧŧąąūđcode\txd19_ubv1.2(hcs200)\bc68f3132\BC68F3132_hopping_code\main.c"
 470  0002  3E14        	sz [20].4
 470  0003  2800     R  	jmp _L19
 473  0004              #line 473 "c:\users\asus\desktop\yeh\rf_control\txd19\txd19ŧŧąąūđcode\txd19_ubv1.2(hcs200)\bc68f3132\BC68F3132_hopping_code\main.c"
 473  0004  0F3F        	mov a,63
 473  0005  0200     R  	sub a,_count_sleep[0]
 473  0006  0F9C        	mov a,156
 473  0007  1200     R  	sbc a,_count_sleep[1]
 473  0008  3C0A        	sz c
 473  0009  2800     R  	jmp _L19
 475  000A              #line 475 "c:\users\asus\desktop\yeh\rf_control\txd19\txd19ŧŧąąūđcode\txd19_ubv1.2(hcs200)\bc68f3132\BC68F3132_hopping_code\main.c"
 475  000A  1F00     R  	clr _count_sleep[0]
 475  000B  1F00     R  	clr _count_sleep[1]
 476  000C              #line 476 "c:\users\asus\desktop\yeh\rf_control\txd19\txd19ŧŧąąūđcode\txd19_ubv1.2(hcs200)\bc68f3132\BC68F3132_hopping_code\main.c"
 476  000C  1480     R  	inc _count_reset[0]
 477  000D              #line 477 "c:\users\asus\desktop\yeh\rf_control\txd19\txd19ŧŧąąūđcode\txd19_ubv1.2(hcs200)\bc68f3132\BC68F3132_hopping_code\main.c"
 477  000D  0F01        	mov a,1
 477  000E  0200     R  	sub a,_count_reset[0]
 477  000F  3C0A        	sz c
 477  0010  2800     R  	jmp _L19
 479  0011              #line 479 "c:\users\asus\desktop\yeh\rf_control\txd19\txd19ŧŧąąūđcode\txd19_ubv1.2(hcs200)\bc68f3132\BC68F3132_hopping_code\main.c"
 479  0011  1F00     R  	clr _count_reset[0]
 480  0012              #line 480 "c:\users\asus\desktop\yeh\rf_control\txd19\txd19ŧŧąąūđcode\txd19_ubv1.2(hcs200)\bc68f3132\BC68F3132_hopping_code\main.c"
 480  0012  3000     R  	set _key_changemode_state
 480  0013              _L19:
 480  0013  0003        	ret
 480  0014              _ChangeKeyStatus endp
 480  0014              #line 480 "c:\users\asus\desktop\yeh\rf_control\txd19\txd19ŧŧąąūđcode\txd19_ubv1.2(hcs200)\bc68f3132\BC68F3132_hopping_code\main.c"
 480  0014              #pragma debug scope 1 1
 480  0014              public _ReadRfdata
 480  0014              #pragma debug scope 10 1
 491  0014              #line 491 "c:\users\asus\desktop\yeh\rf_control\txd19\txd19ŧŧąąūđcode\txd19_ubv1.2(hcs200)\bc68f3132\BC68F3132_hopping_code\main.c"
"File: main.c        Assembler  Version HGASM0202      Page 7

 491  0000              _ReadRfdata .section 'code'
 491  0000              _ReadRfdata proc
 491  0000  0002[           local _ReadRfdata_2 db 2 dup(?)	; 0,2
            00
            ]
 492  0002              #line 492 "c:\users\asus\desktop\yeh\rf_control\txd19\txd19ŧŧąąūđcode\txd19_ubv1.2(hcs200)\bc68f3132\BC68F3132_hopping_code\main.c"
 492  0000  3423        	clr [35].0
 494  0001              #line 494 "c:\users\asus\desktop\yeh\rf_control\txd19\txd19ŧŧąąūđcode\txd19_ubv1.2(hcs200)\bc68f3132\BC68F3132_hopping_code\main.c"
 494  0001  1F00     R  	clr _i[0]
 494  0002              _L24:
 494  0002              #line 494 "c:\users\asus\desktop\yeh\rf_control\txd19\txd19ŧŧąąūđcode\txd19_ubv1.2(hcs200)\bc68f3132\BC68F3132_hopping_code\main.c"
 494  0002  0F07        	mov a,7
 494  0003  0200     R  	sub a,_i[0]
 494  0004  380A        	snz c
 494  0005  2800     R  	jmp _L30
 496  0006              #line 496 "c:\users\asus\desktop\yeh\rf_control\txd19\txd19ŧŧąąūđcode\txd19_ubv1.2(hcs200)\bc68f3132\BC68F3132_hopping_code\main.c"
 496  0006  0700     R  	mov a,_i[0]
 496  0007  0080     R  	mov _ReadRfdata_2[0],a
 496  0008  1F00     R  	clr _ReadRfdata_2[1]
 496  0009  0F0B        	mov a,11
 496  000A  0200     R  	sub a,_i[0]
 496  000B  0080     E  	mov ra,a
 496  000C  0700     E  	mov a,ra
 496  000D  2000     R  	call _EEPROM_RD
 496  000E  0080     E  	mov ra,a
 496  000F  0F00     E  	mov a,low offset _MFG
 496  0010  0300     R  	add a,_ReadRfdata_2[0]
 496  0011  0083        	mov mp,a
 496  0012  0F00     E  	mov a,high offset _MFG
 496  0013  1300     R  	adc a,_ReadRfdata_2[1]
 496  0014  0087        	mov sbp,a
 496  0015  0707        	mov a,sbp
 496  0016  0084        	mov bp,a
 496  0017  0700     E  	mov a,ra
 496  0018  0082        	mov ir,a
 494  0019              #line 494 "c:\users\asus\desktop\yeh\rf_control\txd19\txd19ŧŧąąūđcode\txd19_ubv1.2(hcs200)\bc68f3132\BC68F3132_hopping_code\main.c"
 494  0019  1480     R  	inc _i[0]
 494  001A  2800     R  	jmp _L24
 494  001B              _L30:
 498  001B              #line 498 "c:\users\asus\desktop\yeh\rf_control\txd19\txd19ŧŧąąūđcode\txd19_ubv1.2(hcs200)\bc68f3132\BC68F3132_hopping_code\main.c"
 498  001B  1F00     R  	clr _i[0]
 498  001C              _L26:
 498  001C  0F03        	mov a,3
 498  001D  0200     R  	sub a,_i[0]
 498  001E  380A        	snz c
 498  001F  2800     R  	jmp _L31
 500  0020              #line 500 "c:\users\asus\desktop\yeh\rf_control\txd19\txd19ŧŧąąūđcode\txd19_ubv1.2(hcs200)\bc68f3132\BC68F3132_hopping_code\main.c"
 500  0020  0700     R  	mov a,_i[0]
 500  0021  0080     R  	mov _ReadRfdata_2[0],a
 500  0022  1F00     R  	clr _ReadRfdata_2[1]
 500  0023  0F0F        	mov a,15
 500  0024  0200     R  	sub a,_i[0]
 500  0025  0080     E  	mov ra,a
 500  0026  0700     E  	mov a,ra
 500  0027  2000     R  	call _EEPROM_RD
 500  0028  0080     E  	mov ra,a
 500  0029  0F00     E  	mov a,low offset _SERIAL_NUMBER
 500  002A  0300     R  	add a,_ReadRfdata_2[0]
 500  002B  0083        	mov mp,a
 500  002C  0F00     E  	mov a,high offset _SERIAL_NUMBER
"File: main.c        Assembler  Version HGASM0202      Page 8

 500  002D  1300     R  	adc a,_ReadRfdata_2[1]
 500  002E  0087        	mov sbp,a
 500  002F  0707        	mov a,sbp
 500  0030  0084        	mov bp,a
 500  0031  0700     E  	mov a,ra
 500  0032  0082        	mov ir,a
 498  0033              #line 498 "c:\users\asus\desktop\yeh\rf_control\txd19\txd19ŧŧąąūđcode\txd19_ubv1.2(hcs200)\bc68f3132\BC68F3132_hopping_code\main.c"
 498  0033  1480     R  	inc _i[0]
 498  0034  2800     R  	jmp _L26
 498  0035              _L31:
 502  0035              #line 502 "c:\users\asus\desktop\yeh\rf_control\txd19\txd19ŧŧąąūđcode\txd19_ubv1.2(hcs200)\bc68f3132\BC68F3132_hopping_code\main.c"
 502  0035  1F00     R  	clr _i[0]
 502  0036              _L28:
 502  0036  0F03        	mov a,3
 502  0037  0200     R  	sub a,_i[0]
 502  0038  380A        	snz c
 502  0039  2800     R  	jmp _L32
 504  003A              #line 504 "c:\users\asus\desktop\yeh\rf_control\txd19\txd19ŧŧąąūđcode\txd19_ubv1.2(hcs200)\bc68f3132\BC68F3132_hopping_code\main.c"
 504  003A  0700     R  	mov a,_i[0]
 504  003B  0080     R  	mov _ReadRfdata_2[0],a
 504  003C  1F00     R  	clr _ReadRfdata_2[1]
 504  003D  0700     R  	mov a,_i[0]
 504  003E  0B1E        	add a,30
 504  003F  0080     E  	mov ra,a
 504  0040  0700     E  	mov a,ra
 504  0041  2000     R  	call _EEPROM_RD
 504  0042  0080     E  	mov ra,a
 504  0043  0F00     R  	mov a,low offset _MBUFCOPY
 504  0044  0300     R  	add a,_ReadRfdata_2[0]
 504  0045  0083        	mov mp,a
 504  0046  0F00     R  	mov a,high offset _MBUFCOPY
 504  0047  1300     R  	adc a,_ReadRfdata_2[1]
 504  0048  0087        	mov sbp,a
 504  0049  0707        	mov a,sbp
 504  004A  0084        	mov bp,a
 504  004B  0700     E  	mov a,ra
 504  004C  0082        	mov ir,a
 502  004D              #line 502 "c:\users\asus\desktop\yeh\rf_control\txd19\txd19ŧŧąąūđcode\txd19_ubv1.2(hcs200)\bc68f3132\BC68F3132_hopping_code\main.c"
 502  004D  1480     R  	inc _i[0]
 502  004E  2800     R  	jmp _L28
 502  004F              _L32:
 507  004F              #line 507 "c:\users\asus\desktop\yeh\rf_control\txd19\txd19ŧŧąąūđcode\txd19_ubv1.2(hcs200)\bc68f3132\BC68F3132_hopping_code\main.c"
 507  004F  3023        	set [35].0
 507  0050  0003        	ret
 507  0051              _ReadRfdata endp
 507  0051              #line 507 "c:\users\asus\desktop\yeh\rf_control\txd19\txd19ŧŧąąūđcode\txd19_ubv1.2(hcs200)\bc68f3132\BC68F3132_hopping_code\main.c"
 507  0051              #pragma debug scope 1 1
 507  0051              public _writedata
 507  0051              #pragma debug scope 11 1
 512  0051              #line 512 "c:\users\asus\desktop\yeh\rf_control\txd19\txd19ŧŧąąūđcode\txd19_ubv1.2(hcs200)\bc68f3132\BC68F3132_hopping_code\main.c"
 512  0000              _writedata .section 'code'
 512  0000              _writedata proc
 513  0000              #line 513 "c:\users\asus\desktop\yeh\rf_control\txd19\txd19ŧŧąąūđcode\txd19_ubv1.2(hcs200)\bc68f3132\BC68F3132_hopping_code\main.c"
 513  0000  3423        	clr [35].0
 514  0001              #line 514 "c:\users\asus\desktop\yeh\rf_control\txd19\txd19ŧŧąąūđcode\txd19_ubv1.2(hcs200)\bc68f3132\BC68F3132_hopping_code\main.c"
 514  0001  1F00     R  	clr _i[0]
 514  0002              _L34:
 514  0002              #line 514 "c:\users\asus\desktop\yeh\rf_control\txd19\txd19ŧŧąąūđcode\txd19_ubv1.2(hcs200)\bc68f3132\BC68F3132_hopping_code\main.c"
 514  0002  0F07        	mov a,7
 514  0003  0200     R  	sub a,_i[0]
"File: main.c        Assembler  Version HGASM0202      Page 9

 514  0004  380A        	snz c
 514  0005  2800     R  	jmp _L40
 516  0006              #line 516 "c:\users\asus\desktop\yeh\rf_control\txd19\txd19ŧŧąąūđcode\txd19_ubv1.2(hcs200)\bc68f3132\BC68F3132_hopping_code\main.c"
 516  0006  0F00     E  	mov a,low offset _MFG
 516  0007  0300     R  	add a,_i[0]
 516  0008  0083        	mov mp,a
 516  0009  0F00     E  	mov a,high offset _MFG
 516  000A  1F07        	clr sbp
 516  000B  1387        	adcm a,sbp
 516  000C  0700     R  	mov a,_i[0]
 516  000D  0B04        	add a,4
 516  000E  0080     E  	mov ra,a
 516  000F  2000     E  	call _Crom2Prom
 516  0010  0080     R  	mov _EEPROM_WR_2[0],a
 516  0011  0700     E  	mov a,ra
 516  0012  2000     R  	call _EEPROM_WR
 514  0013              #line 514 "c:\users\asus\desktop\yeh\rf_control\txd19\txd19ŧŧąąūđcode\txd19_ubv1.2(hcs200)\bc68f3132\BC68F3132_hopping_code\main.c"
 514  0013  1480     R  	inc _i[0]
 514  0014  2800     R  	jmp _L34
 514  0015              _L40:
 518  0015              #line 518 "c:\users\asus\desktop\yeh\rf_control\txd19\txd19ŧŧąąūđcode\txd19_ubv1.2(hcs200)\bc68f3132\BC68F3132_hopping_code\main.c"
 518  0015  1F00     R  	clr _i[0]
 518  0016              _L36:
 518  0016  0F03        	mov a,3
 518  0017  0200     R  	sub a,_i[0]
 518  0018  380A        	snz c
 518  0019  2800     R  	jmp _L41
 520  001A              #line 520 "c:\users\asus\desktop\yeh\rf_control\txd19\txd19ŧŧąąūđcode\txd19_ubv1.2(hcs200)\bc68f3132\BC68F3132_hopping_code\main.c"
 520  001A  0F00     E  	mov a,low offset _SERIAL_NUMBER
 520  001B  0300     R  	add a,_i[0]
 520  001C  0083        	mov mp,a
 520  001D  0F00     E  	mov a,high offset _SERIAL_NUMBER
 520  001E  1F07        	clr sbp
 520  001F  1387        	adcm a,sbp
 520  0020  0700     R  	mov a,_i[0]
 520  0021  0B0C        	add a,12
 520  0022  0080     E  	mov ra,a
 520  0023  2000     E  	call _Crom2Prom
 520  0024  0080     R  	mov _EEPROM_WR_2[0],a
 520  0025  0700     E  	mov a,ra
 520  0026  2000     R  	call _EEPROM_WR
 518  0027              #line 518 "c:\users\asus\desktop\yeh\rf_control\txd19\txd19ŧŧąąūđcode\txd19_ubv1.2(hcs200)\bc68f3132\BC68F3132_hopping_code\main.c"
 518  0027  1480     R  	inc _i[0]
 518  0028  2800     R  	jmp _L36
 518  0029              _L41:
 522  0029              #line 522 "c:\users\asus\desktop\yeh\rf_control\txd19\txd19ŧŧąąūđcode\txd19_ubv1.2(hcs200)\bc68f3132\BC68F3132_hopping_code\main.c"
 522  0029  1F00     R  	clr _i[0]
 522  002A              _L38:
 522  002A  0F03        	mov a,3
 522  002B  0200     R  	sub a,_i[0]
 522  002C  380A        	snz c
 522  002D  2800     R  	jmp _L42
 524  002E              #line 524 "c:\users\asus\desktop\yeh\rf_control\txd19\txd19ŧŧąąūđcode\txd19_ubv1.2(hcs200)\bc68f3132\BC68F3132_hopping_code\main.c"
 524  002E  0F00     R  	mov a,low offset _MBUFCOPY
 524  002F  0300     R  	add a,_i[0]
 524  0030  0083        	mov mp,a
 524  0031  0F00     R  	mov a,high offset _MBUFCOPY
 524  0032  1F07        	clr sbp
 524  0033  1387        	adcm a,sbp
 524  0034  0700     R  	mov a,_i[0]
"File: main.c        Assembler  Version HGASM0202      Page 10

 524  0035  0B1E        	add a,30
 524  0036  0080     E  	mov ra,a
 524  0037  2000     E  	call _Crom2Prom
 524  0038  0080     R  	mov _EEPROM_WR_2[0],a
 524  0039  0700     E  	mov a,ra
 524  003A  2000     R  	call _EEPROM_WR
 522  003B              #line 522 "c:\users\asus\desktop\yeh\rf_control\txd19\txd19ŧŧąąūđcode\txd19_ubv1.2(hcs200)\bc68f3132\BC68F3132_hopping_code\main.c"
 522  003B  1480     R  	inc _i[0]
 522  003C  2800     R  	jmp _L38
 522  003D              _L42:
 526  003D              #line 526 "c:\users\asus\desktop\yeh\rf_control\txd19\txd19ŧŧąąūđcode\txd19_ubv1.2(hcs200)\bc68f3132\BC68F3132_hopping_code\main.c"
 526  003D  3023        	set [35].0
 526  003E  0003        	ret
 526  003F              _writedata endp
 526  003F              #line 526 "c:\users\asus\desktop\yeh\rf_control\txd19\txd19ŧŧąąūđcode\txd19_ubv1.2(hcs200)\bc68f3132\BC68F3132_hopping_code\main.c"
 526  003F              #pragma debug scope 1 1
 526  003F              ___integ equ [12]
 526  003F              public _intc_init
 526  003F              #pragma debug scope 12 1
 530  003F              #line 530 "c:\users\asus\desktop\yeh\rf_control\txd19\txd19ŧŧąąūđcode\txd19_ubv1.2(hcs200)\bc68f3132\BC68F3132_hopping_code\main.c"
 530  0000              _intc_init .section 'code'
 530  0000              _intc_init proc
 532  0000              #line 532 "c:\users\asus\desktop\yeh\rf_control\txd19\txd19ŧŧąąūđcode\txd19_ubv1.2(hcs200)\bc68f3132\BC68F3132_hopping_code\main.c"
 532  0000  0F03        	mov a,3
 532  0001  008C        	mov [12],a
 533  0002              #line 533 "c:\users\asus\desktop\yeh\rf_control\txd19\txd19ŧŧąąūđcode\txd19_ubv1.2(hcs200)\bc68f3132\BC68F3132_hopping_code\main.c"
 533  0002  30A3        	set [35].1
 533  0003  0003        	ret
 533  0004              _intc_init endp
 533  0004              #line 533 "c:\users\asus\desktop\yeh\rf_control\txd19\txd19ŧŧąąūđcode\txd19_ubv1.2(hcs200)\bc68f3132\BC68F3132_hopping_code\main.c"
 533  0004              #pragma debug scope 1 1
 533  0004              public _freqfinit
 533  0004              #pragma debug scope 13 1
 537  0004              #line 537 "c:\users\asus\desktop\yeh\rf_control\txd19\txd19ŧŧąąūđcode\txd19_ubv1.2(hcs200)\bc68f3132\BC68F3132_hopping_code\main.c"
 537  0000              _freqfinit .section 'code'
 537  0000              _freqfinit proc
 538  0000              #line 538 "c:\users\asus\desktop\yeh\rf_control\txd19\txd19ŧŧąąūđcode\txd19_ubv1.2(hcs200)\bc68f3132\BC68F3132_hopping_code\main.c"
 538  0000  1F00     E  	clr _MBUF[0]
 539  0001              #line 539 "c:\users\asus\desktop\yeh\rf_control\txd19\txd19ŧŧąąūđcode\txd19_ubv1.2(hcs200)\bc68f3132\BC68F3132_hopping_code\main.c"
 539  0001  0F08        	mov a,8
 539  0002  0080     E  	mov _MBUF[1],a
 540  0003              #line 540 "c:\users\asus\desktop\yeh\rf_control\txd19\txd19ŧŧąąūđcode\txd19_ubv1.2(hcs200)\bc68f3132\BC68F3132_hopping_code\main.c"
 540  0003  0FA0        	mov a,160
 540  0004  0080     E  	mov _MBUF[2],a
 541  0005              #line 541 "c:\users\asus\desktop\yeh\rf_control\txd19\txd19ŧŧąąūđcode\txd19_ubv1.2(hcs200)\bc68f3132\BC68F3132_hopping_code\main.c"
 541  0005  0FE1        	mov a,225
 541  0006  0080     E  	mov _MBUF[3],a
 542  0007              #line 542 "c:\users\asus\desktop\yeh\rf_control\txd19\txd19ŧŧąąūđcode\txd19_ubv1.2(hcs200)\bc68f3132\BC68F3132_hopping_code\main.c"
 542  0007  0F34        	mov a,52
 542  0008  0080     E  	mov _MBUF[4],a
 543  0009              #line 543 "c:\users\asus\desktop\yeh\rf_control\txd19\txd19ŧŧąąūđcode\txd19_ubv1.2(hcs200)\bc68f3132\BC68F3132_hopping_code\main.c"
 543  0009  0700     R  	mov a,_MBUFCOPY[0]
 543  000A  0AA3        	sub a,163
 543  000B  390A        	snz z
 543  000C  2800     R  	jmp _L45
 545  000D              #line 545 "c:\users\asus\desktop\yeh\rf_control\txd19\txd19ŧŧąąūđcode\txd19_ubv1.2(hcs200)\bc68f3132\BC68F3132_hopping_code\main.c"
 545  000D  0F4D        	mov a,77
 545  000E  0080     E  	mov _MBUF[5],a
 545  000F  2800     R  	jmp _L46
 545  0010              _L45:
"File: main.c        Assembler  Version HGASM0202      Page 11

 549  0010              #line 549 "c:\users\asus\desktop\yeh\rf_control\txd19\txd19ŧŧąąūđcode\txd19_ubv1.2(hcs200)\bc68f3132\BC68F3132_hopping_code\main.c"
 549  0010  0FCD        	mov a,205
 549  0011  0080     E  	mov _MBUF[5],a
 549  0012              _L46:
 551  0012              #line 551 "c:\users\asus\desktop\yeh\rf_control\txd19\txd19ŧŧąąūđcode\txd19_ubv1.2(hcs200)\bc68f3132\BC68F3132_hopping_code\main.c"
 551  0012  0700     R  	mov a,_MBUFCOPY[1]
 551  0013  0080     E  	mov _MBUF[6],a
 552  0014              #line 552 "c:\users\asus\desktop\yeh\rf_control\txd19\txd19ŧŧąąūđcode\txd19_ubv1.2(hcs200)\bc68f3132\BC68F3132_hopping_code\main.c"
 552  0014  0700     R  	mov a,_MBUFCOPY[2]
 552  0015  0080     E  	mov _MBUF[7],a
 553  0016              #line 553 "c:\users\asus\desktop\yeh\rf_control\txd19\txd19ŧŧąąūđcode\txd19_ubv1.2(hcs200)\bc68f3132\BC68F3132_hopping_code\main.c"
 553  0016  0700     R  	mov a,_MBUFCOPY[3]
 553  0017  0080     E  	mov _MBUF[8],a
 554  0018              #line 554 "c:\users\asus\desktop\yeh\rf_control\txd19\txd19ŧŧąąūđcode\txd19_ubv1.2(hcs200)\bc68f3132\BC68F3132_hopping_code\main.c"
 554  0018  0F4B        	mov a,75
 554  0019  0080     E  	mov _MBUF[9],a
 554  001A  0003        	ret
 554  001B              _freqfinit endp
 554  001B              #line 554 "c:\users\asus\desktop\yeh\rf_control\txd19\txd19ŧŧąąūđcode\txd19_ubv1.2(hcs200)\bc68f3132\BC68F3132_hopping_code\main.c"
 554  001B              #pragma debug scope 1 1
 554  001B              ___status equ [10]
 554  001B              ___wdtc equ [13]
 554  001B              ___hircc equ [18]
 554  001B              ___scc equ [17]
 554  001B              ___ctm0c0 equ [40]
 554  001B              ___ctm1c0 equ [46]
 554  001B              ___pb equ [24]
 554  001B              ___pbc equ [25]
 554  001B              ___pac equ [21]
 554  001B              ___drvcc equ [90]
 554  001B              ___lvdc equ [27]
 554  001B              public _main
 554  001B              #pragma debug scope 14 1
  83  001B              #line 83 "c:\users\asus\desktop\yeh\rf_control\txd19\txd19ŧŧąąūđcode\txd19_ubv1.2(hcs200)\bc68f3132\BC68F3132_hopping_code\main.c"
  83  001B              IFDEF WITH_DEFAULT_STARTUP
  83  001B              extern _main_initial0:near
  83  001B              extern _main_startup:near
  83  001B              ENDIF
  83  001B              
  83  001B              ROMBANK 0 @start
  83  0000              @start .section com_l 'code'
  83  0000              _main_startup1:
  83  0000              @start .section com_e 'code'
  83  0000  2800     R  	jmp _main
  83  0001              
  83  0000              _main .section 'code'
  83  0000              _main proc
  84  0000              #line 84 "c:\users\asus\desktop\yeh\rf_control\txd19\txd19ŧŧąąūđcode\txd19_ubv1.2(hcs200)\bc68f3132\BC68F3132_hopping_code\main.c"
  84  0000  3A0A        	snz [10].4
  84  0001  2800     R  	jmp _L48
  84  0002              #line 84 "c:\users\asus\desktop\yeh\rf_control\txd19\txd19ŧŧąąūđcode\txd19_ubv1.2(hcs200)\bc68f3132\BC68F3132_hopping_code\main.c"
  84  0002  3E8A        	sz [10].5
  84  0003  2800     R  	jmp _L69
  84  0004              _L48:
  86  0004              #line 86 "c:\users\asus\desktop\yeh\rf_control\txd19\txd19ŧŧąąūđcode\txd19_ubv1.2(hcs200)\bc68f3132\BC68F3132_hopping_code\main.c"
  86  0004  0F57        	mov a,87
  86  0005  008D        	mov [13],a
  87  0006              #line 87 "c:\users\asus\desktop\yeh\rf_control\txd19\txd19ŧŧąąūđcode\txd19_ubv1.2(hcs200)\bc68f3132\BC68F3132_hopping_code\main.c"
  87  0006  0F05        	mov a,5
  87  0007  0092        	mov [18],a
"File: main.c        Assembler  Version HGASM0202      Page 12

  88  0008              #line 88 "c:\users\asus\desktop\yeh\rf_control\txd19\txd19ŧŧąąūđcode\txd19_ubv1.2(hcs200)\bc68f3132\BC68F3132_hopping_code\main.c"
  88  0008  0F02        	mov a,2
  88  0009  0091        	mov [17],a
  89  000A              #line 89 "c:\users\asus\desktop\yeh\rf_control\txd19\txd19ŧŧąąūđcode\txd19_ubv1.2(hcs200)\bc68f3132\BC68F3132_hopping_code\main.c"
  89  000A  2000     R  	call _RAM_CLR
  90  000B              #line 90 "c:\users\asus\desktop\yeh\rf_control\txd19\txd19ŧŧąąūđcode\txd19_ubv1.2(hcs200)\bc68f3132\BC68F3132_hopping_code\main.c"
  90  000B  0700     E  	mov a,_SERIAL_NUMBER[0]
  90  000C  0080     E  	mov _DISC[0],a
  90  000D  0700     E  	mov a,_SERIAL_NUMBER[1]
  90  000E  0080     E  	mov _DISC[1],a
  91  000F              #line 91 "c:\users\asus\desktop\yeh\rf_control\txd19\txd19ŧŧąąūđcode\txd19_ubv1.2(hcs200)\bc68f3132\BC68F3132_hopping_code\main.c"
  91  000F  2000     R  	call _ReadRfdata
  92  0010              #line 92 "c:\users\asus\desktop\yeh\rf_control\txd19\txd19ŧŧąąūđcode\txd19_ubv1.2(hcs200)\bc68f3132\BC68F3132_hopping_code\main.c"
  92  0010  2000     R  	call _SYNC_Load
  93  0011              #line 93 "c:\users\asus\desktop\yeh\rf_control\txd19\txd19ŧŧąąūđcode\txd19_ubv1.2(hcs200)\bc68f3132\BC68F3132_hopping_code\main.c"
  93  0011  2000     E  	call _produceKey
  93  0012              _L69:
 100  0012              #line 100 "c:\users\asus\desktop\yeh\rf_control\txd19\txd19ŧŧąąūđcode\txd19_ubv1.2(hcs200)\bc68f3132\BC68F3132_hopping_code\main.c"
 100  0012  0F57        	mov a,87
 100  0013  008D        	mov [13],a
 101  0014              #line 101 "c:\users\asus\desktop\yeh\rf_control\txd19\txd19ŧŧąąūđcode\txd19_ubv1.2(hcs200)\bc68f3132\BC68F3132_hopping_code\main.c"
 101  0014  0F05        	mov a,5
 101  0015  0092        	mov [18],a
 102  0016              #line 102 "c:\users\asus\desktop\yeh\rf_control\txd19\txd19ŧŧąąūđcode\txd19_ubv1.2(hcs200)\bc68f3132\BC68F3132_hopping_code\main.c"
 102  0016  0F02        	mov a,2
 102  0017  0091        	mov [17],a
 104  0018              #line 104 "c:\users\asus\desktop\yeh\rf_control\txd19\txd19ŧŧąąūđcode\txd19_ubv1.2(hcs200)\bc68f3132\BC68F3132_hopping_code\main.c"
 104  0018  2000     R  	call _IO_Init
 104  0019  2000     E  	call _Key_Init
 104  001A  2000     E  	call _LVD_Init
 104  001B  2000     E  	call _LED_Init
 105  001C              #line 105 "c:\users\asus\desktop\yeh\rf_control\txd19\txd19ŧŧąąūđcode\txd19_ubv1.2(hcs200)\bc68f3132\BC68F3132_hopping_code\main.c"
 105  001C  2000     R  	call _freqfinit
 106  001D              #line 106 "c:\users\asus\desktop\yeh\rf_control\txd19\txd19ŧŧąąūđcode\txd19_ubv1.2(hcs200)\bc68f3132\BC68F3132_hopping_code\main.c"
 106  001D  2000     E  	call _I2C_INI
 106  001E  2000     E  	call _I2C_XT_WK
 106  001F  2000     E  	call _I2C_SCK_TOGGLE
 106  0020  2000     E  	call _WRITE_I2C_MULTI_BYTE
 106  0021  2000     E  	call _I2C_SCK_TOGGLE
 106  0022  2000     E  	call _I2C_SDA_TOGGLE
 107  0023              #line 107 "c:\users\asus\desktop\yeh\rf_control\txd19\txd19ŧŧąąūđcode\txd19_ubv1.2(hcs200)\bc68f3132\BC68F3132_hopping_code\main.c"
 107  0023  2000     R  	call _intc_init
 108  0024              #line 108 "c:\users\asus\desktop\yeh\rf_control\txd19\txd19ŧŧąąūđcode\txd19_ubv1.2(hcs200)\bc68f3132\BC68F3132_hopping_code\main.c"
 108  0024  2000     E  	call _CTM0_INIT
 108  0025  2000     E  	call _CTM1_INIT
 108  0026  2000     R  	call _TBx_Init
 110  0027              #line 110 "c:\users\asus\desktop\yeh\rf_control\txd19\txd19ŧŧąąūđcode\txd19_ubv1.2(hcs200)\bc68f3132\BC68F3132_hopping_code\main.c"
 110  0027  2000     R  	call _ReadRfdata
 110  0028              _L50:
 113  0028              #line 113 "c:\users\asus\desktop\yeh\rf_control\txd19\txd19ŧŧąąūđcode\txd19_ubv1.2(hcs200)\bc68f3132\BC68F3132_hopping_code\main.c"
 113  0028  3400     R  	clr _FLAG1[0].1
 114  0029              #line 114 "c:\users\asus\desktop\yeh\rf_control\txd19\txd19ŧŧąąūđcode\txd19_ubv1.2(hcs200)\bc68f3132\BC68F3132_hopping_code\main.c"
 114  0029  3400     R  	clr _FLAG1[0].4
 115  002A              #line 115 "c:\users\asus\desktop\yeh\rf_control\txd19\txd19ŧŧąąūđcode\txd19_ubv1.2(hcs200)\bc68f3132\BC68F3132_hopping_code\main.c"
 115  002A  3000     E  	set _fkeyrelse
 116  002B              #line 116 "c:\users\asus\desktop\yeh\rf_control\txd19\txd19ŧŧąąūđcode\txd19_ubv1.2(hcs200)\bc68f3132\BC68F3132_hopping_code\main.c"
 116  002B  0F01        	mov a,1
 116  002C  0080     E  	mov _T_FRAME_COUNT[0],a
 117  002D              #line 117 "c:\users\asus\desktop\yeh\rf_control\txd19\txd19ŧŧąąūđcode\txd19_ubv1.2(hcs200)\bc68f3132\BC68F3132_hopping_code\main.c"
 117  002D  0F27        	mov a,39
"File: main.c        Assembler  Version HGASM0202      Page 13

 117  002E  0080     R  	mov _T_GUARD_COUNT[0],a
 118  002F              #line 118 "c:\users\asus\desktop\yeh\rf_control\txd19\txd19ŧŧąąūđcode\txd19_ubv1.2(hcs200)\bc68f3132\BC68F3132_hopping_code\main.c"
 118  002F  0F4F        	mov a,79
 118  0030  0080     R  	mov _cMaxLongPress[0],a
 118  0031  1F00     R  	clr _cMaxLongPress[1]
 119  0032              #line 119 "c:\users\asus\desktop\yeh\rf_control\txd19\txd19ŧŧąąūđcode\txd19_ubv1.2(hcs200)\bc68f3132\BC68F3132_hopping_code\main.c"
 119  0032  1F00     R  	clr _cTimer500ms[0]
 119  0033  1F00     R  	clr _cTimer500ms[1]
 125  0034              #line 125 "c:\users\asus\desktop\yeh\rf_control\txd19\txd19ŧŧąąūđcode\txd19_ubv1.2(hcs200)\bc68f3132\BC68F3132_hopping_code\main.c"
 125  0034  35A8        	clr [40].3
 126  0035              #line 126 "c:\users\asus\desktop\yeh\rf_control\txd19\txd19ŧŧąąūđcode\txd19_ubv1.2(hcs200)\bc68f3132\BC68F3132_hopping_code\main.c"
 126  0035  35AE        	clr [46].3
 129  0036              #line 129 "c:\users\asus\desktop\yeh\rf_control\txd19\txd19ŧŧąąūđcode\txd19_ubv1.2(hcs200)\bc68f3132\BC68F3132_hopping_code\main.c"
 129  0036  3798        	clr [24].7
 131  0037              #line 131 "c:\users\asus\desktop\yeh\rf_control\txd19\txd19ŧŧąąūđcode\txd19_ubv1.2(hcs200)\bc68f3132\BC68F3132_hopping_code\main.c"
 131  0037  3023        	set [35].0
 131  0038              _L68:
 133  0038              #line 133 "c:\users\asus\desktop\yeh\rf_control\txd19\txd19ŧŧąąūđcode\txd19_ubv1.2(hcs200)\bc68f3132\BC68F3132_hopping_code\main.c"
 133  0038              ;# 133 "c:\users\asus\desktop\yeh\rf_control\txd19\txd19ŧŧąąūđcode\txd19_ubv1.2(hcs200)\bc68f3132\BC68F3132_hopping_code\main.c" 1
 133  0038  0001        	clr wdt
 134  0039              #line 134 "c:\users\asus\desktop\yeh\rf_control\txd19\txd19ŧŧąąūđcode\txd19_ubv1.2(hcs200)\bc68f3132\BC68F3132_hopping_code\main.c"
 134  0039  2000     R  	call _ChangeKeyStatus
 135  003A              #line 135 "c:\users\asus\desktop\yeh\rf_control\txd19\txd19ŧŧąąūđcode\txd19_ubv1.2(hcs200)\bc68f3132\BC68F3132_hopping_code\main.c"
 135  003A  3800     R  	snz _key_changemode_state
 135  003B  2800     R  	jmp _L51
 137  003C              #line 137 "c:\users\asus\desktop\yeh\rf_control\txd19\txd19ŧŧąąūđcode\txd19_ubv1.2(hcs200)\bc68f3132\BC68F3132_hopping_code\main.c"
 137  003C  3400     R  	clr _fcheckkey
 138  003D              #line 138 "c:\users\asus\desktop\yeh\rf_control\txd19\txd19ŧŧąąūđcode\txd19_ubv1.2(hcs200)\bc68f3132\BC68F3132_hopping_code\main.c"
 138  003D  3400     R  	clr _FLAG1[0].0
 140  003E              #line 140 "c:\users\asus\desktop\yeh\rf_control\txd19\txd19ŧŧąąūđcode\txd19_ubv1.2(hcs200)\bc68f3132\BC68F3132_hopping_code\main.c"
 140  003E  3019        	set [25].0
 141  003F              #line 141 "c:\users\asus\desktop\yeh\rf_control\txd19\txd19ŧŧąąūđcode\txd19_ubv1.2(hcs200)\bc68f3132\BC68F3132_hopping_code\main.c"
 141  003F  3195        	set [21].3
 142  0040              #line 142 "c:\users\asus\desktop\yeh\rf_control\txd19\txd19ŧŧąąūđcode\txd19_ubv1.2(hcs200)\bc68f3132\BC68F3132_hopping_code\main.c"
 142  0040  305A        	set [90].0
 144  0041              #line 144 "c:\users\asus\desktop\yeh\rf_control\txd19\txd19ŧŧąąūđcode\txd19_ubv1.2(hcs200)\bc68f3132\BC68F3132_hopping_code\main.c"
 144  0041  3495        	clr [21].1
 145  0042              #line 145 "c:\users\asus\desktop\yeh\rf_control\txd19\txd19ŧŧąąūđcode\txd19_ubv1.2(hcs200)\bc68f3132\BC68F3132_hopping_code\main.c"
 145  0042  3094        	set [20].1
 148  0043              #line 148 "c:\users\asus\desktop\yeh\rf_control\txd19\txd19ŧŧąąūđcode\txd19_ubv1.2(hcs200)\bc68f3132\BC68F3132_hopping_code\main.c"
 148  0043  3800     R  	snz _new_data_flag
 148  0044  2800     R  	jmp _L52
 150  0045              #line 150 "c:\users\asus\desktop\yeh\rf_control\txd19\txd19ŧŧąąūđcode\txd19_ubv1.2(hcs200)\bc68f3132\BC68F3132_hopping_code\main.c"
 150  0045  3423        	clr [35].0
 151  0046              #line 151 "c:\users\asus\desktop\yeh\rf_control\txd19\txd19ŧŧąąūđcode\txd19_ubv1.2(hcs200)\bc68f3132\BC68F3132_hopping_code\main.c"
 151  0046  2000     R  	call _writedata
 152  0047              #line 152 "c:\users\asus\desktop\yeh\rf_control\txd19\txd19ŧŧąąūđcode\txd19_ubv1.2(hcs200)\bc68f3132\BC68F3132_hopping_code\main.c"
 152  0047  3400     R  	clr _key_changemode_state
 153  0048              #line 153 "c:\users\asus\desktop\yeh\rf_control\txd19\txd19ŧŧąąūđcode\txd19_ubv1.2(hcs200)\bc68f3132\BC68F3132_hopping_code\main.c"
 153  0048  2000     R  	call _ReadRfdata
 154  0049              #line 154 "c:\users\asus\desktop\yeh\rf_control\txd19\txd19ŧŧąąūđcode\txd19_ubv1.2(hcs200)\bc68f3132\BC68F3132_hopping_code\main.c"
 154  0049  0700     E  	mov a,_SERIAL_NUMBER[0]
 154  004A  0080     E  	mov _DISC[0],a
 154  004B  0700     E  	mov a,_SERIAL_NUMBER[1]
 154  004C  0080     E  	mov _DISC[1],a
 155  004D              #line 155 "c:\users\asus\desktop\yeh\rf_control\txd19\txd19ŧŧąąūđcode\txd19_ubv1.2(hcs200)\bc68f3132\BC68F3132_hopping_code\main.c"
 155  004D  3400     R  	clr _new_data_flag
 156  004E              #line 156 "c:\users\asus\desktop\yeh\rf_control\txd19\txd19ŧŧąąūđcode\txd19_ubv1.2(hcs200)\bc68f3132\BC68F3132_hopping_code\main.c"
 156  004E  3798        	clr [24].7
 157  004F              #line 157 "c:\users\asus\desktop\yeh\rf_control\txd19\txd19ŧŧąąūđcode\txd19_ubv1.2(hcs200)\bc68f3132\BC68F3132_hopping_code\main.c"
"File: main.c        Assembler  Version HGASM0202      Page 14

 157  004F  3019        	set [25].0
 158  0050              #line 158 "c:\users\asus\desktop\yeh\rf_control\txd19\txd19ŧŧąąūđcode\txd19_ubv1.2(hcs200)\bc68f3132\BC68F3132_hopping_code\main.c"
 158  0050  3023        	set [35].0
 158  0051              _L52:
 161  0051              #line 161 "c:\users\asus\desktop\yeh\rf_control\txd19\txd19ŧŧąąūđcode\txd19_ubv1.2(hcs200)\bc68f3132\BC68F3132_hopping_code\main.c"
 161  0051  0F0F        	mov a,15
 161  0052  0200     R  	sub a,_count_sleep[0]
 161  0053  0F27        	mov a,39
 161  0054  1200     R  	sbc a,_count_sleep[1]
 161  0055  3C0A        	sz c
 161  0056  2800     R  	jmp _L54
 163  0057              #line 163 "c:\users\asus\desktop\yeh\rf_control\txd19\txd19ŧŧąąūđcode\txd19_ubv1.2(hcs200)\bc68f3132\BC68F3132_hopping_code\main.c"
 163  0057  1F00     R  	clr _count_sleep[0]
 163  0058  1F00     R  	clr _count_sleep[1]
 164  0059              #line 164 "c:\users\asus\desktop\yeh\rf_control\txd19\txd19ŧŧąąūđcode\txd19_ubv1.2(hcs200)\bc68f3132\BC68F3132_hopping_code\main.c"
 164  0059  1480     R  	inc _count_reset[0]
 165  005A              #line 165 "c:\users\asus\desktop\yeh\rf_control\txd19\txd19ŧŧąąūđcode\txd19_ubv1.2(hcs200)\bc68f3132\BC68F3132_hopping_code\main.c"
 165  005A  1818        	rla [24]
 165  005B  0E01        	and a,1
 165  005C  0080     E  	mov ra,a
 165  005D  0F01        	mov a,1
 165  005E  0480     E  	xorm a,ra
 165  005F  1B80     E  	rrc ra
 165  0060  1F00     E  	clr ra
 165  0061  1B80     E  	rrc ra
 165  0062  3798        	clr [24].7
 165  0063  0700     E  	mov a,ra
 165  0064  0598        	orm a,[24]
 166  0065              #line 166 "c:\users\asus\desktop\yeh\rf_control\txd19\txd19ŧŧąąūđcode\txd19_ubv1.2(hcs200)\bc68f3132\BC68F3132_hopping_code\main.c"
 166  0065  0F17        	mov a,23
 166  0066  0200     R  	sub a,_count_reset[0]
 166  0067  3C0A        	sz c
 166  0068  2800     R  	jmp _L54
 168  0069              #line 168 "c:\users\asus\desktop\yeh\rf_control\txd19\txd19ŧŧąąūđcode\txd19_ubv1.2(hcs200)\bc68f3132\BC68F3132_hopping_code\main.c"
 168  0069  1F00     R  	clr _count_reset[0]
 169  006A              #line 169 "c:\users\asus\desktop\yeh\rf_control\txd19\txd19ŧŧąąūđcode\txd19_ubv1.2(hcs200)\bc68f3132\BC68F3132_hopping_code\main.c"
 169  006A  3400     R  	clr _key_changemode_state
 169  006B  2800     R  	jmp _L54
 169  006C              _L51:
 177  006C              #line 177 "c:\users\asus\desktop\yeh\rf_control\txd19\txd19ŧŧąąūđcode\txd19_ubv1.2(hcs200)\bc68f3132\BC68F3132_hopping_code\main.c"
 177  006C  3800     R  	snz _FLAG1[0].0
 177  006D  2800     R  	jmp _L54
 179  006E              #line 179 "c:\users\asus\desktop\yeh\rf_control\txd19\txd19ŧŧąąūđcode\txd19_ubv1.2(hcs200)\bc68f3132\BC68F3132_hopping_code\main.c"
 179  006E  3400     R  	clr _FLAG1[0].0
 180  006F              #line 180 "c:\users\asus\desktop\yeh\rf_control\txd19\txd19ŧŧąąūđcode\txd19_ubv1.2(hcs200)\bc68f3132\BC68F3132_hopping_code\main.c"
 180  006F  2000     E  	call _CheckKeyStatus
 180  0070  0080     E  	mov ra,a
 180  0071  1080     E  	sz ra
 180  0072  2800     R  	jmp _LI2
 180  0073  2800     R  	jmp _L56
 180  0074              _LI2:
 181  0074              #line 181 "c:\users\asus\desktop\yeh\rf_control\txd19\txd19ŧŧąąūđcode\txd19_ubv1.2(hcs200)\bc68f3132\BC68F3132_hopping_code\main.c"
 181  0074  3000     R  	set _fcheckkey
 181  0075  2800     R  	jmp _L57
 181  0076              _L56:
 183  0076              #line 183 "c:\users\asus\desktop\yeh\rf_control\txd19\txd19ŧŧąąūđcode\txd19_ubv1.2(hcs200)\bc68f3132\BC68F3132_hopping_code\main.c"
 183  0076  3400     R  	clr _fcheckkey
 183  0077              _L57:
 184  0077              #line 184 "c:\users\asus\desktop\yeh\rf_control\txd19\txd19ŧŧąąūđcode\txd19_ubv1.2(hcs200)\bc68f3132\BC68F3132_hopping_code\main.c"
 184  0077  3A9B        	snz [27].5
"File: main.c        Assembler  Version HGASM0202      Page 15

 184  0078  2800     R  	jmp _L58
 186  0079              #line 186 "c:\users\asus\desktop\yeh\rf_control\txd19\txd19ŧŧąąūđcode\txd19_ubv1.2(hcs200)\bc68f3132\BC68F3132_hopping_code\main.c"
 186  0079  3000     R  	set _FLAG2[0].0
 186  007A  2800     R  	jmp _L59
 186  007B              _L58:
 189  007B              #line 189 "c:\users\asus\desktop\yeh\rf_control\txd19\txd19ŧŧąąūđcode\txd19_ubv1.2(hcs200)\bc68f3132\BC68F3132_hopping_code\main.c"
 189  007B  3400     R  	clr _FLAG2[0].0
 189  007C              _L59:
 190  007C              #line 190 "c:\users\asus\desktop\yeh\rf_control\txd19\txd19ŧŧąąūđcode\txd19_ubv1.2(hcs200)\bc68f3132\BC68F3132_hopping_code\main.c"
 190  007C  3C00     R  	sz _FLAG1[0].5
 190  007D  2800     R  	jmp _L54
 192  007E              #line 192 "c:\users\asus\desktop\yeh\rf_control\txd19\txd19ŧŧąąūđcode\txd19_ubv1.2(hcs200)\bc68f3132\BC68F3132_hopping_code\main.c"
 192  007E  1480     R  	inc _cTimer500ms[0]
 192  007F  3D0A        	sz z
 192  0080  1480     R  	inc _cTimer500ms[1]
 193  0081              #line 193 "c:\users\asus\desktop\yeh\rf_control\txd19\txd19ŧŧąąūđcode\txd19_ubv1.2(hcs200)\bc68f3132\BC68F3132_hopping_code\main.c"
 193  0081  0700     R  	mov a,_cTimer500ms[0]
 193  0082  0CFA        	xor a,250
 193  0083  0500     R  	or a,_cTimer500ms[1]
 193  0084  390A        	snz z
 193  0085  2800     R  	jmp _L54
 195  0086              #line 195 "c:\users\asus\desktop\yeh\rf_control\txd19\txd19ŧŧąąūđcode\txd19_ubv1.2(hcs200)\bc68f3132\BC68F3132_hopping_code\main.c"
 195  0086  1F00     R  	clr _cTimer500ms[0]
 195  0087  1F00     R  	clr _cTimer500ms[1]
 196  0088              #line 196 "c:\users\asus\desktop\yeh\rf_control\txd19\txd19ŧŧąąūđcode\txd19_ubv1.2(hcs200)\bc68f3132\BC68F3132_hopping_code\main.c"
 196  0088  3000     R  	set _FLAG1[0].1
 196  0089              _L54:
 216  0089              #line 216 "c:\users\asus\desktop\yeh\rf_control\txd19\txd19ŧŧąąūđcode\txd19_ubv1.2(hcs200)\bc68f3132\BC68F3132_hopping_code\main.c"
 216  0089  3000     R  	set _FLAG1[0].6
 217  008A              #line 217 "c:\users\asus\desktop\yeh\rf_control\txd19\txd19ŧŧąąūđcode\txd19_ubv1.2(hcs200)\bc68f3132\BC68F3132_hopping_code\main.c"
 217  008A  35AE        	clr [46].3
 222  008B              #line 222 "c:\users\asus\desktop\yeh\rf_control\txd19\txd19ŧŧąąūđcode\txd19_ubv1.2(hcs200)\bc68f3132\BC68F3132_hopping_code\main.c"
 222  008B  3800     R  	snz _fcheckkey
 222  008C  2800     R  	jmp _L60
 222  008D  3C00     R  	sz _FLAG1[0].2
 222  008E  2800     R  	jmp _L60
 222  008F  3C00     R  	sz _FLAG1[0].5
 222  0090  2800     R  	jmp _L60
 225  0091              #line 225 "c:\users\asus\desktop\yeh\rf_control\txd19\txd19ŧŧąąūđcode\txd19_ubv1.2(hcs200)\bc68f3132\BC68F3132_hopping_code\main.c"
 225  0091  3398        	set [24].7
 227  0092              #line 227 "c:\users\asus\desktop\yeh\rf_control\txd19\txd19ŧŧąąūđcode\txd19_ubv1.2(hcs200)\bc68f3132\BC68F3132_hopping_code\main.c"
 227  0092  3400     R  	clr _fcheckkey
 228  0093              #line 228 "c:\users\asus\desktop\yeh\rf_control\txd19\txd19ŧŧąąūđcode\txd19_ubv1.2(hcs200)\bc68f3132\BC68F3132_hopping_code\main.c"
 228  0093  3000     R  	set _FLAG1[0].5
 229  0094              #line 229 "c:\users\asus\desktop\yeh\rf_control\txd19\txd19ŧŧąąūđcode\txd19_ubv1.2(hcs200)\bc68f3132\BC68F3132_hopping_code\main.c"
 229  0094  3000     R  	set _FLAG1[0].2
 230  0095              #line 230 "c:\users\asus\desktop\yeh\rf_control\txd19\txd19ŧŧąąūđcode\txd19_ubv1.2(hcs200)\bc68f3132\BC68F3132_hopping_code\main.c"
 230  0095  1F00     R  	clr _cTimer500ms[0]
 230  0096  1F00     R  	clr _cTimer500ms[1]
 231  0097              #line 231 "c:\users\asus\desktop\yeh\rf_control\txd19\txd19ŧŧąąūđcode\txd19_ubv1.2(hcs200)\bc68f3132\BC68F3132_hopping_code\main.c"
 231  0097  0700     E  	mov a,_KeyCurrentStatus[0]
 231  0098  0080     E  	mov _MRFDATA[0],a
 236  0099              #line 236 "c:\users\asus\desktop\yeh\rf_control\txd19\txd19ŧŧąąūđcode\txd19_ubv1.2(hcs200)\bc68f3132\BC68F3132_hopping_code\main.c"
 236  0099  2000     E  	call _Hopping_Encryption
 237  009A              #line 237 "c:\users\asus\desktop\yeh\rf_control\txd19\txd19ŧŧąąūđcode\txd19_ubv1.2(hcs200)\bc68f3132\BC68F3132_hopping_code\main.c"
 237  009A  2000     R  	call _SYNC_Save
 241  009B              #line 241 "c:\users\asus\desktop\yeh\rf_control\txd19\txd19ŧŧąąūđcode\txd19_ubv1.2(hcs200)\bc68f3132\BC68F3132_hopping_code\main.c"
 241  009B  2000     E  	call _DATA_PRO
 243  009C              #line 243 "c:\users\asus\desktop\yeh\rf_control\txd19\txd19ŧŧąąūđcode\txd19_ubv1.2(hcs200)\bc68f3132\BC68F3132_hopping_code\main.c"
 243  009C  31A8        	set [40].3
"File: main.c        Assembler  Version HGASM0202      Page 16

 243  009D              _L60:
 248  009D              #line 248 "c:\users\asus\desktop\yeh\rf_control\txd19\txd19ŧŧąąūđcode\txd19_ubv1.2(hcs200)\bc68f3132\BC68F3132_hopping_code\main.c"
 248  009D  1080     E  	sz _T_FRAME_COUNT[0]
 248  009E  2800     R  	jmp _LI3
 248  009F  2800     R  	jmp _L61
 248  00A0              _LI3:
 248  00A0  3C00     R  	sz _FLAG1[0].2
 248  00A1  2800     R  	jmp _L61
 248  00A2  3800     R  	snz _FLAG1[0].6
 248  00A3  2800     R  	jmp _L61
 248  00A4  3800     R  	snz _FLAG1[0].5
 248  00A5  2800     R  	jmp _L61
 250  00A6              #line 250 "c:\users\asus\desktop\yeh\rf_control\txd19\txd19ŧŧąąūđcode\txd19_ubv1.2(hcs200)\bc68f3132\BC68F3132_hopping_code\main.c"
 250  00A6  3400     R  	clr _FLAG1[0].6
 251  00A7              #line 251 "c:\users\asus\desktop\yeh\rf_control\txd19\txd19ŧŧąąūđcode\txd19_ubv1.2(hcs200)\bc68f3132\BC68F3132_hopping_code\main.c"
 251  00A7  3000     R  	set _FLAG2[0].1
 252  00A8              #line 252 "c:\users\asus\desktop\yeh\rf_control\txd19\txd19ŧŧąąūđcode\txd19_ubv1.2(hcs200)\bc68f3132\BC68F3132_hopping_code\main.c"
 252  00A8  3000     R  	set _FLAG1[0].2
 257  00A9              #line 257 "c:\users\asus\desktop\yeh\rf_control\txd19\txd19ŧŧąąūđcode\txd19_ubv1.2(hcs200)\bc68f3132\BC68F3132_hopping_code\main.c"
 257  00A9  2000     E  	call _DATA_PRO
 259  00AA              #line 259 "c:\users\asus\desktop\yeh\rf_control\txd19\txd19ŧŧąąūđcode\txd19_ubv1.2(hcs200)\bc68f3132\BC68F3132_hopping_code\main.c"
 259  00AA  31A8        	set [40].3
 259  00AB              _L61:
 264  00AB              #line 264 "c:\users\asus\desktop\yeh\rf_control\txd19\txd19ŧŧąąūđcode\txd19_ubv1.2(hcs200)\bc68f3132\BC68F3132_hopping_code\main.c"
 264  00AB  1080     E  	sz _T_FRAME_COUNT[0]
 264  00AC  2800     R  	jmp _L63
 264  00AD  3C00     R  	sz _FLAG1[0].2
 264  00AE  2800     R  	jmp _L63
 267  00AF              #line 267 "c:\users\asus\desktop\yeh\rf_control\txd19\txd19ŧŧąąūđcode\txd19_ubv1.2(hcs200)\bc68f3132\BC68F3132_hopping_code\main.c"
 267  00AF  0700     E  	mov a,_MRFDATA[0]
 267  00B0  0200     E  	sub a,_KeyCurrentStatus[0]
 267  00B1  3D0A        	sz z
 267  00B2  2800     R  	jmp _L65
 267  00B3  3800     R  	snz _fcheckkey
 267  00B4  2800     R  	jmp _L66
 269  00B5              #line 269 "c:\users\asus\desktop\yeh\rf_control\txd19\txd19ŧŧąąūđcode\txd19_ubv1.2(hcs200)\bc68f3132\BC68F3132_hopping_code\main.c"
 269  00B5  3400     R  	clr _FLAG1[0].5
 270  00B6              #line 270 "c:\users\asus\desktop\yeh\rf_control\txd19\txd19ŧŧąąūđcode\txd19_ubv1.2(hcs200)\bc68f3132\BC68F3132_hopping_code\main.c"
 270  00B6  3400     R  	clr _FLAG2[0].1
 271  00B7              #line 271 "c:\users\asus\desktop\yeh\rf_control\txd19\txd19ŧŧąąūđcode\txd19_ubv1.2(hcs200)\bc68f3132\BC68F3132_hopping_code\main.c"
 271  00B7  3400     R  	clr _FLAG1[0].3
 272  00B8              #line 272 "c:\users\asus\desktop\yeh\rf_control\txd19\txd19ŧŧąąūđcode\txd19_ubv1.2(hcs200)\bc68f3132\BC68F3132_hopping_code\main.c"
 272  00B8  3798        	clr [24].7
 273  00B9              #line 273 "c:\users\asus\desktop\yeh\rf_control\txd19\txd19ŧŧąąūđcode\txd19_ubv1.2(hcs200)\bc68f3132\BC68F3132_hopping_code\main.c"
 273  00B9  35A8        	clr [40].3
 274  00BA              #line 274 "c:\users\asus\desktop\yeh\rf_control\txd19\txd19ŧŧąąūđcode\txd19_ubv1.2(hcs200)\bc68f3132\BC68F3132_hopping_code\main.c"
 274  00BA  35AE        	clr [46].3
 275  00BB              #line 275 "c:\users\asus\desktop\yeh\rf_control\txd19\txd19ŧŧąąūđcode\txd19_ubv1.2(hcs200)\bc68f3132\BC68F3132_hopping_code\main.c"
 275  00BB  2800     R  	jmp _L50
 275  00BC              _L65:
 277  00BC              #line 277 "c:\users\asus\desktop\yeh\rf_control\txd19\txd19ŧŧąąūđcode\txd19_ubv1.2(hcs200)\bc68f3132\BC68F3132_hopping_code\main.c"
 277  00BC  3800     R  	snz _fcheckkey
 277  00BD  2800     R  	jmp _L66
 277  00BE  3C00     R  	sz _FLAG1[0].4
 277  00BF  2800     R  	jmp _L66
 282  00C0              #line 282 "c:\users\asus\desktop\yeh\rf_control\txd19\txd19ŧŧąąūđcode\txd19_ubv1.2(hcs200)\bc68f3132\BC68F3132_hopping_code\main.c"
 282  00C0  0F01        	mov a,1
 282  00C1  0080     E  	mov _T_FRAME_COUNT[0],a
 284  00C2              #line 284 "c:\users\asus\desktop\yeh\rf_control\txd19\txd19ŧŧąąūđcode\txd19_ubv1.2(hcs200)\bc68f3132\BC68F3132_hopping_code\main.c"
 284  00C2  0FFF        	mov a,255
"File: main.c        Assembler  Version HGASM0202      Page 17

 284  00C3  0300     R  	add a,_cMaxLongPress[0]
 284  00C4  0080     E  	mov rb,a
 284  00C5  0FFF        	mov a,255
 284  00C6  1300     R  	adc a,_cMaxLongPress[1]
 284  00C7  0080     E  	mov rc,a
 284  00C8  0700     E  	mov a,rb
 284  00C9  0080     R  	mov _cMaxLongPress[0],a
 284  00CA  0700     E  	mov a,rc
 284  00CB  0080     R  	mov _cMaxLongPress[1],a
 284  00CC  0700     E  	mov a,rb
 284  00CD  0500     E  	or a,rc
 284  00CE  390A        	snz z
 284  00CF  2800     R  	jmp _L63
 285  00D0              #line 285 "c:\users\asus\desktop\yeh\rf_control\txd19\txd19ŧŧąąūđcode\txd19_ubv1.2(hcs200)\bc68f3132\BC68F3132_hopping_code\main.c"
 285  00D0  3000     R  	set _FLAG1[0].4
 285  00D1  2800     R  	jmp _L63
 285  00D2              _L66:
 290  00D2              #line 290 "c:\users\asus\desktop\yeh\rf_control\txd19\txd19ŧŧąąūđcode\txd19_ubv1.2(hcs200)\bc68f3132\BC68F3132_hopping_code\main.c"
 290  00D2  3400     R  	clr _FLAG1[0].5
 291  00D3              #line 291 "c:\users\asus\desktop\yeh\rf_control\txd19\txd19ŧŧąąūđcode\txd19_ubv1.2(hcs200)\bc68f3132\BC68F3132_hopping_code\main.c"
 291  00D3  3400     R  	clr _FLAG2[0].1
 292  00D4              #line 292 "c:\users\asus\desktop\yeh\rf_control\txd19\txd19ŧŧąąūđcode\txd19_ubv1.2(hcs200)\bc68f3132\BC68F3132_hopping_code\main.c"
 292  00D4  3400     R  	clr _FLAG1[0].3
 293  00D5              #line 293 "c:\users\asus\desktop\yeh\rf_control\txd19\txd19ŧŧąąūđcode\txd19_ubv1.2(hcs200)\bc68f3132\BC68F3132_hopping_code\main.c"
 293  00D5  3400     R  	clr _FLAG1[0].2
 294  00D6              #line 294 "c:\users\asus\desktop\yeh\rf_control\txd19\txd19ŧŧąąūđcode\txd19_ubv1.2(hcs200)\bc68f3132\BC68F3132_hopping_code\main.c"
 294  00D6  3400     R  	clr _fcheckkey
 295  00D7              #line 295 "c:\users\asus\desktop\yeh\rf_control\txd19\txd19ŧŧąąūđcode\txd19_ubv1.2(hcs200)\bc68f3132\BC68F3132_hopping_code\main.c"
 295  00D7  3000     R  	set _FLAG1[0].1
 297  00D8              #line 297 "c:\users\asus\desktop\yeh\rf_control\txd19\txd19ŧŧąąūđcode\txd19_ubv1.2(hcs200)\bc68f3132\BC68F3132_hopping_code\main.c"
 297  00D8  3798        	clr [24].7
 299  00D9              #line 299 "c:\users\asus\desktop\yeh\rf_control\txd19\txd19ŧŧąąūđcode\txd19_ubv1.2(hcs200)\bc68f3132\BC68F3132_hopping_code\main.c"
 299  00D9  35A8        	clr [40].3
 300  00DA              #line 300 "c:\users\asus\desktop\yeh\rf_control\txd19\txd19ŧŧąąūđcode\txd19_ubv1.2(hcs200)\bc68f3132\BC68F3132_hopping_code\main.c"
 300  00DA  35AE        	clr [46].3
 300  00DB              _L63:
 306  00DB              #line 306 "c:\users\asus\desktop\yeh\rf_control\txd19\txd19ŧŧąąūđcode\txd19_ubv1.2(hcs200)\bc68f3132\BC68F3132_hopping_code\main.c"
 306  00DB  3800     R  	snz _FLAG1[0].1
 306  00DC  2800     R  	jmp _L68
 308  00DD              #line 308 "c:\users\asus\desktop\yeh\rf_control\txd19\txd19ŧŧąąūđcode\txd19_ubv1.2(hcs200)\bc68f3132\BC68F3132_hopping_code\main.c"
 308  00DD  0FAF        	mov a,175
 308  00DE  008D        	mov [13],a
 309  00DF              #line 309 "c:\users\asus\desktop\yeh\rf_control\txd19\txd19ŧŧąąūđcode\txd19_ubv1.2(hcs200)\bc68f3132\BC68F3132_hopping_code\main.c"
 309  00DF  1F11        	clr [17]
 310  00E0              #line 310 "c:\users\asus\desktop\yeh\rf_control\txd19\txd19ŧŧąąūđcode\txd19_ubv1.2(hcs200)\bc68f3132\BC68F3132_hopping_code\main.c"
 310  00E0  0F01        	mov a,1
 310  00E1  0092        	mov [18],a
 311  00E2              #line 311 "c:\users\asus\desktop\yeh\rf_control\txd19\txd19ŧŧąąūđcode\txd19_ubv1.2(hcs200)\bc68f3132\BC68F3132_hopping_code\main.c"
 311  00E2  361B        	clr [27].4
 312  00E3              #line 312 "c:\users\asus\desktop\yeh\rf_control\txd19\txd19ŧŧąąūđcode\txd19_ubv1.2(hcs200)\bc68f3132\BC68F3132_hopping_code\main.c"
 312  00E3  2000     E  	call _Key_Init
 313  00E4              #line 313 "c:\users\asus\desktop\yeh\rf_control\txd19\txd19ŧŧąąūđcode\txd19_ubv1.2(hcs200)\bc68f3132\BC68F3132_hopping_code\main.c"
 313  00E4              ;# 313 "c:\users\asus\desktop\yeh\rf_control\txd19\txd19ŧŧąąūđcode\txd19_ubv1.2(hcs200)\bc68f3132\BC68F3132_hopping_code\main.c" 1
 313  00E4  0002        	halt
 315  00E5              #line 315 "c:\users\asus\desktop\yeh\rf_control\txd19\txd19ŧŧąąūđcode\txd19_ubv1.2(hcs200)\bc68f3132\BC68F3132_hopping_code\main.c"
 315  00E5              ;# 315 "c:\users\asus\desktop\yeh\rf_control\txd19\txd19ŧŧąąūđcode\txd19_ubv1.2(hcs200)\bc68f3132\BC68F3132_hopping_code\main.c" 1
 315  00E5  0001        	clr wdt
 316  00E6              #line 316 "c:\users\asus\desktop\yeh\rf_control\txd19\txd19ŧŧąąūđcode\txd19_ubv1.2(hcs200)\bc68f3132\BC68F3132_hopping_code\main.c"
 316  00E6  2800     R  	jmp _L69
 316  00E7  2800     R  	jmp $
"File: main.c        Assembler  Version HGASM0202      Page 18

 316  00E8              _main endp
 316  00E8              
 316  00E8              @dummy endp
 316  00E8              
 316  00E8              #line 316 "c:\users\asus\desktop\yeh\rf_control\txd19\txd19ŧŧąąūđcode\txd19_ubv1.2(hcs200)\bc68f3132\BC68F3132_hopping_code\main.c"
 316  00E8              #pragma debug scope 1 1
 316  00E8              public _freqeeprom
 316  00E8              #pragma debug scope 15 1
 558  00E8              #line 558 "c:\users\asus\desktop\yeh\rf_control\txd19\txd19ŧŧąąūđcode\txd19_ubv1.2(hcs200)\bc68f3132\BC68F3132_hopping_code\main.c"
 558  0000              _freqeeprom .section 'code'
 558  0000              _freqeeprom proc
 559  0000              #line 559 "c:\users\asus\desktop\yeh\rf_control\txd19\txd19ŧŧąąūđcode\txd19_ubv1.2(hcs200)\bc68f3132\BC68F3132_hopping_code\main.c"
 559  0000  1F00     R  	clr _i[0]
 559  0001  2800     R  	jmp _L86
 559  0002              _L87:
 561  0002              #line 561 "c:\users\asus\desktop\yeh\rf_control\txd19\txd19ŧŧąąūđcode\txd19_ubv1.2(hcs200)\bc68f3132\BC68F3132_hopping_code\main.c"
 561  0002  0F00     E  	mov a,low (offset _MBUF+2)
 561  0003  0300     R  	add a,_i[0]
 561  0004  0083        	mov mp,a
 561  0005  0F00     E  	mov a,high (offset _MBUF+2)
 561  0006  1F07        	clr sbp
 561  0007  1387        	adcm a,sbp
 561  0008  0700     R  	mov a,_i[0]
 561  0009  0B1E        	add a,30
 561  000A  0080     E  	mov ra,a
 561  000B  2000     E  	call _Crom2Prom
 561  000C  0080     R  	mov _EEPROM_WR_2[0],a
 561  000D  0700     E  	mov a,ra
 561  000E  2000     R  	call _EEPROM_WR
 559  000F              #line 559 "c:\users\asus\desktop\yeh\rf_control\txd19\txd19ŧŧąąūđcode\txd19_ubv1.2(hcs200)\bc68f3132\BC68F3132_hopping_code\main.c"
 559  000F  1480     R  	inc _i[0]
 559  0010              _L86:
 559  0010  0F07        	mov a,7
 559  0011  0200     R  	sub a,_i[0]
 559  0012  3C0A        	sz c
 559  0013  2800     R  	jmp _L87
 559  0014  0003        	ret
 559  0015              _freqeeprom endp
 559  0015              #line 559 "c:\users\asus\desktop\yeh\rf_control\txd19\txd19ŧŧąąūđcode\txd19_ubv1.2(hcs200)\bc68f3132\BC68F3132_hopping_code\main.c"
 559  0015              #pragma debug scope 1 1
 559  0015              public _decode_pulse
 559  0015              #pragma debug scope 16 1
 569  0015              #line 569 "c:\users\asus\desktop\yeh\rf_control\txd19\txd19ŧŧąąūđcode\txd19_ubv1.2(hcs200)\bc68f3132\BC68F3132_hopping_code\main.c"
 569  0000              _decode_pulse .section 'code'
 569  0000              _decode_pulse proc
 569  0000              public _decode_pulse_2
 569  0000  0004[           local _decode_pulse_2 db 4 dup(?)	; 1,3
            00
            ]
 569  0000  0080     R  	mov _decode_pulse_2[2],a
 569  0001              #pragma debug variable 8 16 _decode_pulse_2+2 "width_high"
 569  0001              #pragma debug variable 8 16 _decode_pulse_2+0 "width_low"
 569  0001              #pragma debug variable 8 16 _decode_pulse_2+1 "index"
 572  0001              #line 572 "c:\users\asus\desktop\yeh\rf_control\txd19\txd19ŧŧąąūđcode\txd19_ubv1.2(hcs200)\bc68f3132\BC68F3132_hopping_code\main.c"
 572  0001  0F3F        	mov a,63
 572  0002  0200     R  	sub a,_bit_index[0]
 572  0003  380A        	snz c
 572  0004  2800     R  	jmp _L89
 574  0005              #line 574 "c:\users\asus\desktop\yeh\rf_control\txd19\txd19ŧŧąąūđcode\txd19_ubv1.2(hcs200)\bc68f3132\BC68F3132_hopping_code\main.c"
 574  0005  0700     R  	mov a,_bit_index[0]
"File: main.c        Assembler  Version HGASM0202      Page 19

 574  0006  0080     R  	mov _decode_pulse_2[1],a
 575  0007              #line 575 "c:\users\asus\desktop\yeh\rf_control\txd19\txd19ŧŧąąūđcode\txd19_ubv1.2(hcs200)\bc68f3132\BC68F3132_hopping_code\main.c"
 575  0007  0700     R  	mov a,_decode_pulse_2[2]
 575  0008  0200     R  	sub a,_decode_pulse_2[0]
 575  0009  3C0A        	sz c
 575  000A  2800     R  	jmp _L90
 577  000B              #line 577 "c:\users\asus\desktop\yeh\rf_control\txd19\txd19ŧŧąąūđcode\txd19_ubv1.2(hcs200)\bc68f3132\BC68F3132_hopping_code\main.c"
 577  000B  1100     R  	swapa _decode_pulse_2[1]
 577  000C  1885        	rl acc
 577  000D  0E1F        	and a,1fh
 577  000E  0080     E  	mov rb,a
 577  000F  1F00     E  	clr rc
 577  0010  0F00     E  	mov a,low offset _MFG
 577  0011  0300     E  	add a,rb
 577  0012  0083        	mov mp,a
 577  0013  0F00     E  	mov a,high offset _MFG
 577  0014  1300     E  	adc a,rc
 577  0015  0087        	mov sbp,a
 577  0016  2000     E  	call _Crom2Prom
 577  0017  0080     R  	mov _decode_pulse_2[3],a
 577  0018  0700     R  	mov a,_decode_pulse_2[1]
 577  0019  0080     E  	mov rb,a
 577  001A  1F00     E  	clr rc
 577  001B  0180     E  	cpl rb
 577  001C  0180     E  	cpl rc
 577  001D  0F07        	mov a,7  
 577  001E  0680     E  	andm a,rb  
 577  001F  0F00        	mov a,0  
 577  0020  0680     E  	andm a,rc
 577  0021  0F01        	mov a,1
 577  0022  0080     E  	mov rd,a
 577  0023  1F00     E  	clr re
 577  0024  1400     E  	inca rb
 577  0025  2800     R  	jmp _LI4
 577  0026              _LI5:
 577  0026  340A        	clr c
 577  0027  1A80     E  	rlc rd
 577  0028  1A80     E  	rlc re
 577  0029              _LI4:
 577  0029  1785        	sdz acc
 577  002A  2800     R  	jmp _LI5
 577  002B  0100     E  	cpla rd
 577  002C  0080     E  	mov rd,a
 577  002D  0700     R  	mov a,_decode_pulse_2[3]
 577  002E  0680     E  	andm a,rd
 577  002F  2800     R  	jmp _L96
 577  0030              _L90:
 581  0030              #line 581 "c:\users\asus\desktop\yeh\rf_control\txd19\txd19ŧŧąąūđcode\txd19_ubv1.2(hcs200)\bc68f3132\BC68F3132_hopping_code\main.c"
 581  0030  1100     R  	swapa _decode_pulse_2[1]
 581  0031  1885        	rl acc
 581  0032  0E1F        	and a,1fh
 581  0033  0080     E  	mov rb,a
 581  0034  1F00     E  	clr rc
 581  0035  0F00     E  	mov a,low offset _MFG
 581  0036  0300     E  	add a,rb
 581  0037  0083        	mov mp,a
 581  0038  0F00     E  	mov a,high offset _MFG
 581  0039  1300     E  	adc a,rc
 581  003A  0087        	mov sbp,a
 581  003B  2000     E  	call _Crom2Prom
"File: main.c        Assembler  Version HGASM0202      Page 20

 581  003C  0080     R  	mov _decode_pulse_2[3],a
 581  003D  0700     R  	mov a,_decode_pulse_2[1]
 581  003E  0080     E  	mov rb,a
 581  003F  1F00     E  	clr rc
 581  0040  0180     E  	cpl rb
 581  0041  0180     E  	cpl rc
 581  0042  0F07        	mov a,7  
 581  0043  0680     E  	andm a,rb  
 581  0044  0F00        	mov a,0  
 581  0045  0680     E  	andm a,rc
 581  0046  0F01        	mov a,1
 581  0047  0080     E  	mov rd,a
 581  0048  1F00     E  	clr re
 581  0049  1400     E  	inca rb
 581  004A  2800     R  	jmp _LI6
 581  004B              _LI7:
 581  004B  340A        	clr c
 581  004C  1A80     E  	rlc rd
 581  004D  1A80     E  	rlc re
 581  004E              _LI6:
 581  004E  1785        	sdz acc
 581  004F  2800     R  	jmp _LI7
 581  0050  0700     R  	mov a,_decode_pulse_2[3]
 581  0051  0580     E  	orm a,rd
 581  0052              _L96:
 581  0052  0707        	mov a,sbp
 581  0053  0084        	mov bp,a
 581  0054  0700     E  	mov a,rd
 581  0055  0082        	mov ir,a
 581  0056              _L89:
 584  0056              #line 584 "c:\users\asus\desktop\yeh\rf_control\txd19\txd19ŧŧąąūđcode\txd19_ubv1.2(hcs200)\bc68f3132\BC68F3132_hopping_code\main.c"
 584  0056  0F40        	mov a,64
 584  0057  0200     R  	sub a,_bit_index[0]
 584  0058  3C0A        	sz c
 584  0059  2800     R  	jmp _L91
 584  005A  0F5F        	mov a,95
 584  005B  0200     R  	sub a,_bit_index[0]
 584  005C  380A        	snz c
 584  005D  2800     R  	jmp _L91
 586  005E              #line 586 "c:\users\asus\desktop\yeh\rf_control\txd19\txd19ŧŧąąūđcode\txd19_ubv1.2(hcs200)\bc68f3132\BC68F3132_hopping_code\main.c"
 586  005E  0700     R  	mov a,_bit_index[0]
 586  005F  0BC0        	add a,192
 586  0060  0080     R  	mov _decode_pulse_2[1],a
 587  0061              #line 587 "c:\users\asus\desktop\yeh\rf_control\txd19\txd19ŧŧąąūđcode\txd19_ubv1.2(hcs200)\bc68f3132\BC68F3132_hopping_code\main.c"
 587  0061  0700     R  	mov a,_decode_pulse_2[2]
 587  0062  0200     R  	sub a,_decode_pulse_2[0]
 587  0063  3C0A        	sz c
 587  0064  2800     R  	jmp _L92
 589  0065              #line 589 "c:\users\asus\desktop\yeh\rf_control\txd19\txd19ŧŧąąūđcode\txd19_ubv1.2(hcs200)\bc68f3132\BC68F3132_hopping_code\main.c"
 589  0065  1100     R  	swapa _decode_pulse_2[1]
 589  0066  1885        	rl acc
 589  0067  0E1F        	and a,1fh
 589  0068  0080     E  	mov rb,a
 589  0069  1F00     E  	clr rc
 589  006A  0F00     E  	mov a,low offset _SERIAL_NUMBER
 589  006B  0300     E  	add a,rb
 589  006C  0083        	mov mp,a
 589  006D  0F00     E  	mov a,high offset _SERIAL_NUMBER
 589  006E  1300     E  	adc a,rc
 589  006F  0087        	mov sbp,a
"File: main.c        Assembler  Version HGASM0202      Page 21

 589  0070  2000     E  	call _Crom2Prom
 589  0071  0080     R  	mov _decode_pulse_2[3],a
 589  0072  0700     R  	mov a,_decode_pulse_2[1]
 589  0073  0080     E  	mov rb,a
 589  0074  1F00     E  	clr rc
 589  0075  0180     E  	cpl rb
 589  0076  0180     E  	cpl rc
 589  0077  0F07        	mov a,7  
 589  0078  0680     E  	andm a,rb  
 589  0079  0F00        	mov a,0  
 589  007A  0680     E  	andm a,rc
 589  007B  0F01        	mov a,1
 589  007C  0080     E  	mov rd,a
 589  007D  1F00     E  	clr re
 589  007E  1400     E  	inca rb
 589  007F  2800     R  	jmp _LI8
 589  0080              _LI9:
 589  0080  340A        	clr c
 589  0081  1A80     E  	rlc rd
 589  0082  1A80     E  	rlc re
 589  0083              _LI8:
 589  0083  1785        	sdz acc
 589  0084  2800     R  	jmp _LI9
 589  0085  0100     E  	cpla rd
 589  0086  0080     E  	mov rd,a
 589  0087  0700     R  	mov a,_decode_pulse_2[3]
 589  0088  0680     E  	andm a,rd
 589  0089  2800     R  	jmp _L97
 589  008A              _L92:
 593  008A              #line 593 "c:\users\asus\desktop\yeh\rf_control\txd19\txd19ŧŧąąūđcode\txd19_ubv1.2(hcs200)\bc68f3132\BC68F3132_hopping_code\main.c"
 593  008A  1100     R  	swapa _decode_pulse_2[1]
 593  008B  1885        	rl acc
 593  008C  0E1F        	and a,1fh
 593  008D  0080     E  	mov rb,a
 593  008E  1F00     E  	clr rc
 593  008F  0F00     E  	mov a,low offset _SERIAL_NUMBER
 593  0090  0300     E  	add a,rb
 593  0091  0083        	mov mp,a
 593  0092  0F00     E  	mov a,high offset _SERIAL_NUMBER
 593  0093  1300     E  	adc a,rc
 593  0094  0087        	mov sbp,a
 593  0095  2000     E  	call _Crom2Prom
 593  0096  0080     R  	mov _decode_pulse_2[3],a
 593  0097  0700     R  	mov a,_decode_pulse_2[1]
 593  0098  0080     E  	mov rb,a
 593  0099  1F00     E  	clr rc
 593  009A  0180     E  	cpl rb
 593  009B  0180     E  	cpl rc
 593  009C  0F07        	mov a,7  
 593  009D  0680     E  	andm a,rb  
 593  009E  0F00        	mov a,0  
 593  009F  0680     E  	andm a,rc
 593  00A0  0F01        	mov a,1
 593  00A1  0080     E  	mov rd,a
 593  00A2  1F00     E  	clr re
 593  00A3  1400     E  	inca rb
 593  00A4  2800     R  	jmp _LI10
 593  00A5              _LI11:
 593  00A5  340A        	clr c
 593  00A6  1A80     E  	rlc rd
"File: main.c        Assembler  Version HGASM0202      Page 22

 593  00A7  1A80     E  	rlc re
 593  00A8              _LI10:
 593  00A8  1785        	sdz acc
 593  00A9  2800     R  	jmp _LI11
 593  00AA  0700     R  	mov a,_decode_pulse_2[3]
 593  00AB  0580     E  	orm a,rd
 593  00AC              _L97:
 593  00AC  0707        	mov a,sbp
 593  00AD  0084        	mov bp,a
 593  00AE  0700     E  	mov a,rd
 593  00AF  0082        	mov ir,a
 593  00B0              _L91:
 597  00B0              #line 597 "c:\users\asus\desktop\yeh\rf_control\txd19\txd19ŧŧąąūđcode\txd19_ubv1.2(hcs200)\bc68f3132\BC68F3132_hopping_code\main.c"
 597  00B0  0F60        	mov a,96
 597  00B1  0200     R  	sub a,_bit_index[0]
 597  00B2  3C0A        	sz c
 597  00B3  2800     R  	jmp _L93
 599  00B4              #line 599 "c:\users\asus\desktop\yeh\rf_control\txd19\txd19ŧŧąąūđcode\txd19_ubv1.2(hcs200)\bc68f3132\BC68F3132_hopping_code\main.c"
 599  00B4  0700     R  	mov a,_bit_index[0]
 599  00B5  0BA0        	add a,160
 599  00B6  0080     R  	mov _decode_pulse_2[1],a
 600  00B7              #line 600 "c:\users\asus\desktop\yeh\rf_control\txd19\txd19ŧŧąąūđcode\txd19_ubv1.2(hcs200)\bc68f3132\BC68F3132_hopping_code\main.c"
 600  00B7  0700     R  	mov a,_decode_pulse_2[2]
 600  00B8  0200     R  	sub a,_decode_pulse_2[0]
 600  00B9  3C0A        	sz c
 600  00BA  2800     R  	jmp _L94
 602  00BB              #line 602 "c:\users\asus\desktop\yeh\rf_control\txd19\txd19ŧŧąąūđcode\txd19_ubv1.2(hcs200)\bc68f3132\BC68F3132_hopping_code\main.c"
 602  00BB  1100     R  	swapa _decode_pulse_2[1]
 602  00BC  1885        	rl acc
 602  00BD  0E1F        	and a,1fh
 602  00BE  0080     E  	mov rb,a
 602  00BF  1F00     E  	clr rc
 602  00C0  0F00     R  	mov a,low offset _MBUFCOPY
 602  00C1  0300     E  	add a,rb
 602  00C2  0083        	mov mp,a
 602  00C3  0F00     R  	mov a,high offset _MBUFCOPY
 602  00C4  1300     E  	adc a,rc
 602  00C5  0087        	mov sbp,a
 602  00C6  2000     E  	call _Crom2Prom
 602  00C7  0080     R  	mov _decode_pulse_2[3],a
 602  00C8  0700     R  	mov a,_decode_pulse_2[1]
 602  00C9  0080     E  	mov rb,a
 602  00CA  1F00     E  	clr rc
 602  00CB  0180     E  	cpl rb
 602  00CC  0180     E  	cpl rc
 602  00CD  0F07        	mov a,7  
 602  00CE  0680     E  	andm a,rb  
 602  00CF  0F00        	mov a,0  
 602  00D0  0680     E  	andm a,rc
 602  00D1  0F01        	mov a,1
 602  00D2  0080     E  	mov rd,a
 602  00D3  1F00     E  	clr re
 602  00D4  1400     E  	inca rb
 602  00D5  2800     R  	jmp _LI12
 602  00D6              _LI13:
 602  00D6  340A        	clr c
 602  00D7  1A80     E  	rlc rd
 602  00D8  1A80     E  	rlc re
 602  00D9              _LI12:
 602  00D9  1785        	sdz acc
"File: main.c        Assembler  Version HGASM0202      Page 23

 602  00DA  2800     R  	jmp _LI13
 602  00DB  0100     E  	cpla rd
 602  00DC  0080     E  	mov rd,a
 602  00DD  0700     R  	mov a,_decode_pulse_2[3]
 602  00DE  0680     E  	andm a,rd
 602  00DF  2800     R  	jmp _L98
 602  00E0              _L94:
 606  00E0              #line 606 "c:\users\asus\desktop\yeh\rf_control\txd19\txd19ŧŧąąūđcode\txd19_ubv1.2(hcs200)\bc68f3132\BC68F3132_hopping_code\main.c"
 606  00E0  1100     R  	swapa _decode_pulse_2[1]
 606  00E1  1885        	rl acc
 606  00E2  0E1F        	and a,1fh
 606  00E3  0080     E  	mov rb,a
 606  00E4  1F00     E  	clr rc
 606  00E5  0F00     R  	mov a,low offset _MBUFCOPY
 606  00E6  0300     E  	add a,rb
 606  00E7  0083        	mov mp,a
 606  00E8  0F00     R  	mov a,high offset _MBUFCOPY
 606  00E9  1300     E  	adc a,rc
 606  00EA  0087        	mov sbp,a
 606  00EB  2000     E  	call _Crom2Prom
 606  00EC  0080     R  	mov _decode_pulse_2[3],a
 606  00ED  0700     R  	mov a,_decode_pulse_2[1]
 606  00EE  0080     E  	mov rb,a
 606  00EF  1F00     E  	clr rc
 606  00F0  0180     E  	cpl rb
 606  00F1  0180     E  	cpl rc
 606  00F2  0F07        	mov a,7  
 606  00F3  0680     E  	andm a,rb  
 606  00F4  0F00        	mov a,0  
 606  00F5  0680     E  	andm a,rc
 606  00F6  0F01        	mov a,1
 606  00F7  0080     E  	mov rd,a
 606  00F8  1F00     E  	clr re
 606  00F9  1400     E  	inca rb
 606  00FA  2800     R  	jmp _LI14
 606  00FB              _LI15:
 606  00FB  340A        	clr c
 606  00FC  1A80     E  	rlc rd
 606  00FD  1A80     E  	rlc re
 606  00FE              _LI14:
 606  00FE  1785        	sdz acc
 606  00FF  2800     R  	jmp _LI15
 606  0100  0700     R  	mov a,_decode_pulse_2[3]
 606  0101  0580     E  	orm a,rd
 606  0102              _L98:
 606  0102  0707        	mov a,sbp
 606  0103  0084        	mov bp,a
 606  0104  0700     E  	mov a,rd
 606  0105  0082        	mov ir,a
 606  0106              _L93:
 610  0106              #line 610 "c:\users\asus\desktop\yeh\rf_control\txd19\txd19ŧŧąąūđcode\txd19_ubv1.2(hcs200)\bc68f3132\BC68F3132_hopping_code\main.c"
 610  0106  1480     R  	inc _bit_index[0]
 611  0107              #line 611 "c:\users\asus\desktop\yeh\rf_control\txd19\txd19ŧŧąąūđcode\txd19_ubv1.2(hcs200)\bc68f3132\BC68F3132_hopping_code\main.c"
 611  0107  3800     R  	snz _bit_index[0].7
 611  0108  2800     R  	jmp _L88
 613  0109              #line 613 "c:\users\asus\desktop\yeh\rf_control\txd19\txd19ŧŧąąūđcode\txd19_ubv1.2(hcs200)\bc68f3132\BC68F3132_hopping_code\main.c"
 613  0109  1F00     R  	clr _bit_index[0]
 614  010A              #line 614 "c:\users\asus\desktop\yeh\rf_control\txd19\txd19ŧŧąąūđcode\txd19_ubv1.2(hcs200)\bc68f3132\BC68F3132_hopping_code\main.c"
 614  010A  3000     R  	set _new_data_flag
 615  010B              #line 615 "c:\users\asus\desktop\yeh\rf_control\txd19\txd19ŧŧąąūđcode\txd19_ubv1.2(hcs200)\bc68f3132\BC68F3132_hopping_code\main.c"
"File: main.c        Assembler  Version HGASM0202      Page 24

 615  010B  3400     R  	clr _preamble_detected
 616  010C              #line 616 "c:\users\asus\desktop\yeh\rf_control\txd19\txd19ŧŧąąūđcode\txd19_ubv1.2(hcs200)\bc68f3132\BC68F3132_hopping_code\main.c"
 616  010C  1F00     R  	clr _preamble_count[0]
 616  010D              _L88:
 616  010D  0003        	ret
 616  010E              _decode_pulse endp
 616  010E              #line 616 "c:\users\asus\desktop\yeh\rf_control\txd19\txd19ŧŧąąūđcode\txd19_ubv1.2(hcs200)\bc68f3132\BC68F3132_hopping_code\main.c"
 616  010E              #pragma debug scope 1 1
 616  010E              public _time
 616  010E              #pragma debug scope 17 1
 621  010E              #line 621 "c:\users\asus\desktop\yeh\rf_control\txd19\txd19ŧŧąąūđcode\txd19_ubv1.2(hcs200)\bc68f3132\BC68F3132_hopping_code\main.c"
 621  0000              @time_code .section at 16 'code'
 621  0000  0080     E  	mov r1,a
 621  0001  070A        	mov a,status
 621  0002  0080     E  	mov r2,a
 621  0003  2800     R  	jmp _time
 621  0004              #pragma debug scope 1 1
 621  0004              @dummy16 endp
 621  0004              #pragma debug scope 18 1
 621  0000              _time .section 'code'
 621  0000              _time proc
 622  0000              #line 622 "c:\users\asus\desktop\yeh\rf_control\txd19\txd19ŧŧąąūđcode\txd19_ubv1.2(hcs200)\bc68f3132\BC68F3132_hopping_code\main.c"
 622  0000  3723        	clr [35].6
 623  0001              #line 623 "c:\users\asus\desktop\yeh\rf_control\txd19\txd19ŧŧąąūđcode\txd19_ubv1.2(hcs200)\bc68f3132\BC68F3132_hopping_code\main.c"
 623  0001  1480     R  	inc _count_high[0]
 624  0002              #line 624 "c:\users\asus\desktop\yeh\rf_control\txd19\txd19ŧŧąąūđcode\txd19_ubv1.2(hcs200)\bc68f3132\BC68F3132_hopping_code\main.c"
 624  0002  1480     R  	inc _count_low[0]
 626  0003              #line 626 "c:\users\asus\desktop\yeh\rf_control\txd19\txd19ŧŧąąūđcode\txd19_ubv1.2(hcs200)\bc68f3132\BC68F3132_hopping_code\main.c"
 626  0003  3F94        	sz [20].7
 626  0004  2800     R  	jmp _L100
 626  0005              #line 626 "c:\users\asus\desktop\yeh\rf_control\txd19\txd19ŧŧąąūđcode\txd19_ubv1.2(hcs200)\bc68f3132\BC68F3132_hopping_code\main.c"
 626  0005  3A14        	snz [20].4
 626  0006  2800     R  	jmp _L101
 626  0007              _L100:
 626  0007  3800     R  	snz _key_changemode_state
 626  0008  2800     R  	jmp _L102
 626  0009              _L101:
 628  0009              #line 628 "c:\users\asus\desktop\yeh\rf_control\txd19\txd19ŧŧąąūđcode\txd19_ubv1.2(hcs200)\bc68f3132\BC68F3132_hopping_code\main.c"
 628  0009  1480     R  	inc _count_sleep[0]
 628  000A  3D0A        	sz z
 628  000B  1480     R  	inc _count_sleep[1]
 628  000C  2800     R  	jmp _L103
 628  000D              _L102:
 632  000D              #line 632 "c:\users\asus\desktop\yeh\rf_control\txd19\txd19ŧŧąąūđcode\txd19_ubv1.2(hcs200)\bc68f3132\BC68F3132_hopping_code\main.c"
 632  000D  1F00     R  	clr _count_sleep[0]
 632  000E  1F00     R  	clr _count_sleep[1]
 632  000F              _L103:
 635  000F              #line 635 "c:\users\asus\desktop\yeh\rf_control\txd19\txd19ŧŧąąūđcode\txd19_ubv1.2(hcs200)\bc68f3132\BC68F3132_hopping_code\main.c"
 635  000F  0F64        	mov a,100
 635  0010  0200     R  	sub a,_count_low[0]
 635  0011  3C0A        	sz c
 635  0012  2800     R  	jmp _L99
 637  0013              #line 637 "c:\users\asus\desktop\yeh\rf_control\txd19\txd19ŧŧąąūđcode\txd19_ubv1.2(hcs200)\bc68f3132\BC68F3132_hopping_code\main.c"
 637  0013  1F00     R  	clr _bit_index[0]
 638  0014              #line 638 "c:\users\asus\desktop\yeh\rf_control\txd19\txd19ŧŧąąūđcode\txd19_ubv1.2(hcs200)\bc68f3132\BC68F3132_hopping_code\main.c"
 638  0014  3400     R  	clr _preamble_detected
 639  0015              #line 639 "c:\users\asus\desktop\yeh\rf_control\txd19\txd19ŧŧąąūđcode\txd19_ubv1.2(hcs200)\bc68f3132\BC68F3132_hopping_code\main.c"
 639  0015  1F00     R  	clr _count_low[0]
 639  0016              _L99:
 639  0016  0700     E  	mov a,r2
"File: main.c        Assembler  Version HGASM0202      Page 25

 639  0017  008A        	mov status,a
 639  0018  0700     E  	mov a,r1
 639  0019  0004        	reti
 639  001A              _time endp
 639  001A              
 639  001A              #line 639 "c:\users\asus\desktop\yeh\rf_control\txd19\txd19ŧŧąąūđcode\txd19_ubv1.2(hcs200)\bc68f3132\BC68F3132_hopping_code\main.c"
 639  001A              #pragma debug scope 1 1
 639  001A              public _intc
 639  001A              #pragma debug scope 19 1
 645  001A              #line 645 "c:\users\asus\desktop\yeh\rf_control\txd19\txd19ŧŧąąūđcode\txd19_ubv1.2(hcs200)\bc68f3132\BC68F3132_hopping_code\main.c"
 645  0000              @intc_code .section at 4 'code'
 645  0000  0080     E  	mov r1,a
 645  0001  070A        	mov a,status
 645  0002  0080     E  	mov r2,a
 645  0003  2800     R  	jmp _intc
 645  0004              #pragma debug scope 1 1
 645  0004              @dummy4 endp
 645  0004              #pragma debug scope 20 1
 645  0000              _intc .section 'code'
 645  0000              _intc proc
 645  0000  0704        	mov a,bp
 645  0001  0080     E  	mov r3,a
 645  0002  0703        	mov a,mp
 645  0003  0080     E  	mov r4,a
 645  0004  0707        	mov a,sbp
 645  0005  0080     E  	mov r5,a
 646  0006              #line 646 "c:\users\asus\desktop\yeh\rf_control\txd19\txd19ŧŧąąūđcode\txd19_ubv1.2(hcs200)\bc68f3132\BC68F3132_hopping_code\main.c"
 646  0006  3623        	clr [35].4
 647  0007              #line 647 "c:\users\asus\desktop\yeh\rf_control\txd19\txd19ŧŧąąūđcode\txd19_ubv1.2(hcs200)\bc68f3132\BC68F3132_hopping_code\main.c"
 647  0007  3994        	snz [20].3
 647  0008  2800     R  	jmp _L109
 650  0009              #line 650 "c:\users\asus\desktop\yeh\rf_control\txd19\txd19ŧŧąąūđcode\txd19_ubv1.2(hcs200)\bc68f3132\BC68F3132_hopping_code\main.c"
 650  0009  1F00     R  	clr _count_high[0]
 651  000A              #line 651 "c:\users\asus\desktop\yeh\rf_control\txd19\txd19ŧŧąąūđcode\txd19_ubv1.2(hcs200)\bc68f3132\BC68F3132_hopping_code\main.c"
 651  000A  0700     R  	mov a,_count_low[0]
 651  000B  0080     R  	mov _pulse_width_low[0],a
 652  000C              #line 652 "c:\users\asus\desktop\yeh\rf_control\txd19\txd19ŧŧąąūđcode\txd19_ubv1.2(hcs200)\bc68f3132\BC68F3132_hopping_code\main.c"
 652  000C  3C00     R  	sz _preamble_detected
 652  000D  2800     R  	jmp _L110
 654  000E              #line 654 "c:\users\asus\desktop\yeh\rf_control\txd19\txd19ŧŧąąūđcode\txd19_ubv1.2(hcs200)\bc68f3132\BC68F3132_hopping_code\main.c"
 654  000E  0F05        	mov a,5
 654  000F  0200     R  	sub a,_pulse_width_high[0]
 654  0010  3C0A        	sz c
 654  0011  2800     R  	jmp _L111
 654  0012  0F59        	mov a,89
 654  0013  0200     R  	sub a,_pulse_width_high[0]
 654  0014  380A        	snz c
 654  0015  2800     R  	jmp _L111
 656  0016              #line 656 "c:\users\asus\desktop\yeh\rf_control\txd19\txd19ŧŧąąūđcode\txd19_ubv1.2(hcs200)\bc68f3132\BC68F3132_hopping_code\main.c"
 656  0016  1480     R  	inc _preamble_count[0]
 658  0017              #line 658 "c:\users\asus\desktop\yeh\rf_control\txd19\txd19ŧŧąąūđcode\txd19_ubv1.2(hcs200)\bc68f3132\BC68F3132_hopping_code\main.c"
 658  0017  0700     R  	mov a,_preamble_count[0]
 658  0018  0A06        	sub a,6
 658  0019  390A        	snz z
 658  001A  2800     R  	jmp _L108
 660  001B              #line 660 "c:\users\asus\desktop\yeh\rf_control\txd19\txd19ŧŧąąūđcode\txd19_ubv1.2(hcs200)\bc68f3132\BC68F3132_hopping_code\main.c"
 660  001B  3000     R  	set _preamble_detected
 660  001C  2800     R  	jmp _L108
 660  001D              _L111:
 666  001D              #line 666 "c:\users\asus\desktop\yeh\rf_control\txd19\txd19ŧŧąąūđcode\txd19_ubv1.2(hcs200)\bc68f3132\BC68F3132_hopping_code\main.c"
"File: main.c        Assembler  Version HGASM0202      Page 26

 666  001D  1F00     R  	clr _preamble_count[0]
 666  001E  2800     R  	jmp _L108
 666  001F              _L110:
 671  001F              #line 671 "c:\users\asus\desktop\yeh\rf_control\txd19\txd19ŧŧąąūđcode\txd19_ubv1.2(hcs200)\bc68f3132\BC68F3132_hopping_code\main.c"
 671  001F  0700     R  	mov a,_pulse_width_high[0]
 671  0020  0080     E  	mov ra,a
 671  0021  0700     R  	mov a,_pulse_width_low[0]
 671  0022  0080     R  	mov _decode_pulse_2[0],a
 671  0023  0700     E  	mov a,ra
 671  0024  2000     R  	call _decode_pulse
 671  0025  2800     R  	jmp _L108
 671  0026              _L109:
 676  0026              #line 676 "c:\users\asus\desktop\yeh\rf_control\txd19\txd19ŧŧąąūđcode\txd19_ubv1.2(hcs200)\bc68f3132\BC68F3132_hopping_code\main.c"
 676  0026  1F00     R  	clr _count_low[0]
 677  0027              #line 677 "c:\users\asus\desktop\yeh\rf_control\txd19\txd19ŧŧąąūđcode\txd19_ubv1.2(hcs200)\bc68f3132\BC68F3132_hopping_code\main.c"
 677  0027  0700     R  	mov a,_count_high[0]
 677  0028  0080     R  	mov _pulse_width_high[0],a
 677  0029              _L108:
 677  0029  0700     E  	mov a,r2
 677  002A  008A        	mov status,a
 677  002B  0700     E  	mov a,r3
 677  002C  0084        	mov bp,a
 677  002D  0700     E  	mov a,r4
 677  002E  0083        	mov mp,a
 677  002F  0700     E  	mov a,r5
 677  0030  0087        	mov sbp,a
 677  0031  0700     E  	mov a,r1
 677  0032  0004        	reti
 677  0033              _intc endp
 677  0033              
 677  0033              #line 677 "c:\users\asus\desktop\yeh\rf_control\txd19\txd19ŧŧąąūđcode\txd19_ubv1.2(hcs200)\bc68f3132\BC68F3132_hopping_code\main.c"
 677  0033              #pragma debug scope 1 1
 677  0033              public _KEYDATA
 677  0000              @crom	.section 'crom'
  79  0000              #line 79 "c:\users\asus\desktop\yeh\rf_control\txd19\txd19ŧŧąąūđcode\txd19_ubv1.2(hcs200)\bc68f3132\BC68F3132_hopping_code\main.c"
  79  0000              @crom	.section	'crom'
  79  0000              _KEYDATA:
  79  0000              #pragma debug array 42 8 21 1
  79  0000              #pragma debug array 42 8 21 1
  79  0000              #pragma debug variable 42 1 _KEYDATA "KEYDATA"
  79  0000  0901        	ret a,1
  79  0001  0908        	ret a,8
  79  0002  0904        	ret a,4
  79  0003  0906        	ret a,6
  79  0004  0902        	ret a,2
  79  0005  0909        	ret a,9
  79  0006  090A        	ret a,10
  79  0007  090B        	ret a,11
  79  0008  090C        	ret a,12
  79  0009  090D        	ret a,13
  79  000A  090A        	ret a,10
  79  000B  090B        	ret a,11
  79  000C  090C        	ret a,12
  79  000D  090D        	ret a,13
  79  000E  090E        	ret a,14
  79  000F  090F        	ret a,15
  79  0010  0900        	ret a,0
  79  0011  0901        	ret a,1
  79  0012  0902        	ret a,2
  79  0013  0903        	ret a,3
"File: main.c        Assembler  Version HGASM0202      Page 27

  79  0014  0904        	ret a,4
  71  0015              #line 71 "c:\users\asus\desktop\yeh\rf_control\txd19\txd19ŧŧąąūđcode\txd19_ubv1.2(hcs200)\bc68f3132\BC68F3132_hopping_code\main.c"
  71  0015              public _CRC_4BIT
  71  0000              @HCCINIT0 .section 'data'
  71  0000              _CRC_4BIT	db 0
  71  0001              #pragma debug variable 8 1 _CRC_4BIT "CRC_4BIT"
  71  0001              
  71  0000              @HCCINIT .section 'data'
  71  0000              #line 71 "c:\users\asus\desktop\yeh\rf_control\txd19\txd19ŧŧąąūđcode\txd19_ubv1.2(hcs200)\bc68f3132\BC68F3132_hopping_code\main.c"
  71  0000              public _CRC_8BIT
  71  0001              @HCCINIT0 .section 'data'
  71  0001              _CRC_8BIT	db 0
  71  0002              #pragma debug variable 8 1 _CRC_8BIT "CRC_8BIT"
  71  0002              
  71  0000              @HCCINIT .section 'data'
  66  0000              #line 66 "c:\users\asus\desktop\yeh\rf_control\txd19\txd19ŧŧąąūđcode\txd19_ubv1.2(hcs200)\bc68f3132\BC68F3132_hopping_code\main.c"
  66  0000              public _FLAG2
  66  0002              @HCCINIT0 .section 'data'
  66  0002              _FLAG2	db 0
  66  0003              #pragma debug struct_end
  66  0003              #pragma debug struct_end
  66  0003              #pragma debug union_end
  66  0003              #pragma debug union_end
  66  0003              #pragma debug variable 44 1 _FLAG2 "FLAG2"
  66  0003              
  66  0000              @HCCINIT .section 'data'
  66  0000              #line 66 "c:\users\asus\desktop\yeh\rf_control\txd19\txd19ŧŧąąūđcode\txd19_ubv1.2(hcs200)\bc68f3132\BC68F3132_hopping_code\main.c"
  66  0000              public _FLAG1
  66  0003              @HCCINIT0 .section 'data'
  66  0003              _FLAG1	db 0
  66  0004              #pragma debug variable 44 1 _FLAG1 "FLAG1"
  66  0004              
  66  0000              @HCCINIT .section 'data'
  65  0000              #line 65 "c:\users\asus\desktop\yeh\rf_control\txd19\txd19ŧŧąąūđcode\txd19_ubv1.2(hcs200)\bc68f3132\BC68F3132_hopping_code\main.c"
  65  0000              public _cSync
  65  0004              @HCCINIT0 .section 'data'
  65  0004  0002[       _cSync	db 2 dup(0)
            00
            ]
  65  0006              #pragma debug array 45 8 2 1
  65  0006              #pragma debug array 45 8 2 1
  65  0006              #pragma debug variable 45 1 _cSync "cSync"
  65  0006              
  65  0000              @HCCINIT .section 'data'
  64  0000              #line 64 "c:\users\asus\desktop\yeh\rf_control\txd19\txd19ŧŧąąūđcode\txd19_ubv1.2(hcs200)\bc68f3132\BC68F3132_hopping_code\main.c"
  64  0000              public _K_R
  64  0006              @HCCINIT0 .section 'data'
  64  0006  0004[       _K_R	db 4 dup(0)
            00
            ]
  64  000A              #pragma debug array 46 8 4 1
  64  000A              #pragma debug array 46 8 4 1
  64  000A              #pragma debug variable 46 1 _K_R "K_R"
  64  000A              
  64  0000              @HCCINIT .section 'data'
  62  0000              #line 62 "c:\users\asus\desktop\yeh\rf_control\txd19\txd19ŧŧąąūđcode\txd19_ubv1.2(hcs200)\bc68f3132\BC68F3132_hopping_code\main.c"
  62  0000              public _cMaxLongPress
  62  000A              @HCCINIT0 .section 'data'
  62  000A  0002[       _cMaxLongPress	db 2 dup(0)
            00
"File: main.c        Assembler  Version HGASM0202      Page 28

            ]
  62  000C              #pragma debug variable 12 1 _cMaxLongPress "cMaxLongPress"
  62  000C              
  62  0000              @HCCINIT .section 'data'
  62  0000              #line 62 "c:\users\asus\desktop\yeh\rf_control\txd19\txd19ŧŧąąūđcode\txd19_ubv1.2(hcs200)\bc68f3132\BC68F3132_hopping_code\main.c"
  62  0000              public _cBACW
  62  000C              @HCCINIT0 .section 'data'
  62  000C  0002[       _cBACW	db 2 dup(0)
            00
            ]
  62  000E              #pragma debug variable 12 1 _cBACW "cBACW"
  62  000E              
  62  0000              @HCCINIT .section 'data'
  62  0000              #line 62 "c:\users\asus\desktop\yeh\rf_control\txd19\txd19ŧŧąąūđcode\txd19_ubv1.2(hcs200)\bc68f3132\BC68F3132_hopping_code\main.c"
  62  0000              public _tBACW
  62  000E              @HCCINIT0 .section 'data'
  62  000E  0002[       _tBACW	db 2 dup(0)
            00
            ]
  62  0010              #pragma debug variable 12 1 _tBACW "tBACW"
  62  0010              
  62  0000              @HCCINIT .section 'data'
  62  0000              #line 62 "c:\users\asus\desktop\yeh\rf_control\txd19\txd19ŧŧąąūđcode\txd19_ubv1.2(hcs200)\bc68f3132\BC68F3132_hopping_code\main.c"
  62  0000              public _tCount
  62  0010              @HCCINIT0 .section 'data'
  62  0010  0002[       _tCount	db 2 dup(0)
            00
            ]
  62  0012              #pragma debug variable 12 1 _tCount "tCount"
  62  0012              
  62  0000              @HCCINIT .section 'data'
  62  0000              #line 62 "c:\users\asus\desktop\yeh\rf_control\txd19\txd19ŧŧąąūđcode\txd19_ubv1.2(hcs200)\bc68f3132\BC68F3132_hopping_code\main.c"
  62  0000              public _cTimer500ms
  62  0012              @HCCINIT0 .section 'data'
  62  0012  0002[       _cTimer500ms	db 2 dup(0)
            00
            ]
  62  0014              #pragma debug variable 12 1 _cTimer500ms "cTimer500ms"
  62  0014              
  62  0000              @HCCINIT .section 'data'
  61  0000              #line 61 "c:\users\asus\desktop\yeh\rf_control\txd19\txd19ŧŧąąūđcode\txd19_ubv1.2(hcs200)\bc68f3132\BC68F3132_hopping_code\main.c"
  61  0000              public _T_GUARD_COUNT
  61  0014              @HCCINIT0 .section 'data'
  61  0014              _T_GUARD_COUNT	db 0
  61  0015              #pragma debug variable 8 1 _T_GUARD_COUNT "T_GUARD_COUNT"
  61  0015              
  61  0000              @HCCINIT .section 'data'
  60  0000              #line 60 "c:\users\asus\desktop\yeh\rf_control\txd19\txd19ŧŧąąūđcode\txd19_ubv1.2(hcs200)\bc68f3132\BC68F3132_hopping_code\main.c"
  60  0000              public _fcheckkey
  60  0000              @BITDATASEC .section 'data'
  60  0000  00          _fcheckkey	dbit 0
  60  0001              #pragma debug variable 2 1 _fcheckkey "fcheckkey"
  60  0001              
  60  0000              @HCCINIT .section 'data'
  58  0000              #line 58 "c:\users\asus\desktop\yeh\rf_control\txd19\txd19ŧŧąąūđcode\txd19_ubv1.2(hcs200)\bc68f3132\BC68F3132_hopping_code\main.c"
  58  0000              public _MBUFCOPY
  58  0015              @HCCINIT0 .section 'data'
  58  0015  0004[       _MBUFCOPY	db 4 dup(0)
            00
            ]
"File: main.c        Assembler  Version HGASM0202      Page 29

  58  0019              #pragma debug variable 46 1 _MBUFCOPY "MBUFCOPY"
  58  0019              
  58  0000              @HCCINIT .section 'data'
  58  0000              public _Fskcount
  58  0000              @HCCINIT	.section 'data'
  57  0000              #line 57 "c:\users\asus\desktop\yeh\rf_control\txd19\txd19ŧŧąąūđcode\txd19_ubv1.2(hcs200)\bc68f3132\BC68F3132_hopping_code\main.c"
  57  0000              @HCCINIT .section 'data'
  57  0000              _Fskcount label byte
  57  0000              #pragma debug variable 8 1 _Fskcount "Fskcount"
  57  0000              	db 0
  57  0000              @ROMDATA_BASE .section inpage 'code'
  57  0000  0900        	ret a,0
  57  0001              @HCCINIT .section 'data'
  57  0001              public _Askcount
  57  0001              #line 57 "c:\users\asus\desktop\yeh\rf_control\txd19\txd19ŧŧąąūđcode\txd19_ubv1.2(hcs200)\bc68f3132\BC68F3132_hopping_code\main.c"
  57  0001              @HCCINIT .section 'data'
  57  0001              _Askcount label byte
  57  0001              #pragma debug variable 8 1 _Askcount "Askcount"
  57  0001              	db 0
  57  0001              @ROMDATA_BASE .section inpage 'code'
  57  0001  0900        	ret a,0
  57  0002              @HCCINIT .section 'data'
  56  0002              #line 56 "c:\users\asus\desktop\yeh\rf_control\txd19\txd19ŧŧąąūđcode\txd19_ubv1.2(hcs200)\bc68f3132\BC68F3132_hopping_code\main.c"
  56  0002              public _i
  56  0019              @HCCINIT0 .section 'data'
  56  0019              _i	db 0
  56  001A              #pragma debug variable 8 1 _i "i"
  56  001A              
  56  0002              @HCCINIT .section 'data'
  56  0002              public _preamble_count
  55  0002              #line 55 "c:\users\asus\desktop\yeh\rf_control\txd19\txd19ŧŧąąūđcode\txd19_ubv1.2(hcs200)\bc68f3132\BC68F3132_hopping_code\main.c"
  55  0002              @HCCINIT .section 'data'
  55  0002              _preamble_count label byte
  55  0002              #pragma debug variable 8 1 _preamble_count "preamble_count"
  55  0002              	db 0
  55  0002              @ROMDATA_BASE .section inpage 'code'
  55  0002  0900        	ret a,0
  55  0003              @HCCINIT .section 'data'
  55  0003              public _bit_index_2
  54  0003              #line 54 "c:\users\asus\desktop\yeh\rf_control\txd19\txd19ŧŧąąūđcode\txd19_ubv1.2(hcs200)\bc68f3132\BC68F3132_hopping_code\main.c"
  54  0003              @HCCINIT .section 'data'
  54  0003              _bit_index_2 label byte
  54  0003              #pragma debug variable 8 1 _bit_index_2 "bit_index_2"
  54  0003              	db 0
  54  0003              @ROMDATA_BASE .section inpage 'code'
  54  0003  0900        	ret a,0
  54  0004              @HCCINIT .section 'data'
  54  0004              public _bit_index
  53  0004              #line 53 "c:\users\asus\desktop\yeh\rf_control\txd19\txd19ŧŧąąūđcode\txd19_ubv1.2(hcs200)\bc68f3132\BC68F3132_hopping_code\main.c"
  53  0004              @HCCINIT .section 'data'
  53  0004              _bit_index label byte
  53  0004              #pragma debug variable 8 1 _bit_index "bit_index"
  53  0004              	db 0
  53  0004              @ROMDATA_BASE .section inpage 'code'
  53  0004  0900        	ret a,0
  53  0005              @HCCINIT .section 'data'
  53  0005              public _preamble_detected
  52  0005              #line 52 "c:\users\asus\desktop\yeh\rf_control\txd19\txd19ŧŧąąūđcode\txd19_ubv1.2(hcs200)\bc68f3132\BC68F3132_hopping_code\main.c"
  52  0001              @BITDATASEC .section 'data'
  52  0000              _preamble_detected	dbit 0
"File: main.c        Assembler  Version HGASM0202      Page 30

  52  0001              #pragma debug variable 2 1 _preamble_detected "preamble_detected"
  52  0001              public _count_sleep
  51  0001              #line 51 "c:\users\asus\desktop\yeh\rf_control\txd19\txd19ŧŧąąūđcode\txd19_ubv1.2(hcs200)\bc68f3132\BC68F3132_hopping_code\main.c"
  51  0005              @HCCINIT .section 'data'
  51  0005              _count_sleep label byte
  51  0005              #pragma debug variable 12 1 _count_sleep "count_sleep"
  51  0005              	db 0
  51  0005              @ROMDATA_BASE .section inpage 'code'
  51  0005  0900        	ret a,0
  51  0006              @HCCINIT .section 'data'
  51  0006              	db 0
  51  0006              @ROMDATA_BASE .section inpage 'code'
  51  0006  0900        	ret a,0
  51  0007              @HCCINIT .section 'data'
  51  0007              public _count_reset
  50  0007              #line 50 "c:\users\asus\desktop\yeh\rf_control\txd19\txd19ŧŧąąūđcode\txd19_ubv1.2(hcs200)\bc68f3132\BC68F3132_hopping_code\main.c"
  50  0007              @HCCINIT .section 'data'
  50  0007              _count_reset label byte
  50  0007              #pragma debug variable 8 1 _count_reset "count_reset"
  50  0007              	db 0
  50  0007              @ROMDATA_BASE .section inpage 'code'
  50  0007  0900        	ret a,0
  50  0008              @HCCINIT .section 'data'
  50  0008              public _count_high
  50  0008              #line 50 "c:\users\asus\desktop\yeh\rf_control\txd19\txd19ŧŧąąūđcode\txd19_ubv1.2(hcs200)\bc68f3132\BC68F3132_hopping_code\main.c"
  50  0008              @HCCINIT .section 'data'
  50  0008              _count_high label byte
  50  0008              #pragma debug variable 8 1 _count_high "count_high"
  50  0008              	db 0
  50  0008              @ROMDATA_BASE .section inpage 'code'
  50  0008  0900        	ret a,0
  50  0009              @HCCINIT .section 'data'
  50  0009              public _count_low
  50  0009              #line 50 "c:\users\asus\desktop\yeh\rf_control\txd19\txd19ŧŧąąūđcode\txd19_ubv1.2(hcs200)\bc68f3132\BC68F3132_hopping_code\main.c"
  50  0009              @HCCINIT .section 'data'
  50  0009              _count_low label byte
  50  0009              #pragma debug variable 8 1 _count_low "count_low"
  50  0009              	db 0
  50  0009              @ROMDATA_BASE .section inpage 'code'
  50  0009  0900        	ret a,0
  50  000A              @HCCINIT .section 'data'
  50  000A              public _pulse_width_high
  49  000A              #line 49 "c:\users\asus\desktop\yeh\rf_control\txd19\txd19ŧŧąąūđcode\txd19_ubv1.2(hcs200)\bc68f3132\BC68F3132_hopping_code\main.c"
  49  000A              @HCCINIT .section 'data'
  49  000A              _pulse_width_high label byte
  49  000A              #pragma debug variable 8 1 _pulse_width_high "pulse_width_high"
  49  000A              	db 0
  49  000A              @ROMDATA_BASE .section inpage 'code'
  49  000A  0900        	ret a,0
  49  000B              @HCCINIT .section 'data'
  49  000B              public _pulse_width_low
  49  000B              #line 49 "c:\users\asus\desktop\yeh\rf_control\txd19\txd19ŧŧąąūđcode\txd19_ubv1.2(hcs200)\bc68f3132\BC68F3132_hopping_code\main.c"
  49  000B              @HCCINIT .section 'data'
  49  000B              _pulse_width_low label byte
  49  000B              #pragma debug variable 8 1 _pulse_width_low "pulse_width_low"
  49  000B              	db 0
  49  000B              @ROMDATA_BASE .section inpage 'code'
  49  000B  0900        	ret a,0
  49  000C              @HCCINIT .section 'data'
  49  000C              public _new_data_flag
"File: main.c        Assembler  Version HGASM0202      Page 31

  48  000C              #line 48 "c:\users\asus\desktop\yeh\rf_control\txd19\txd19ŧŧąąūđcode\txd19_ubv1.2(hcs200)\bc68f3132\BC68F3132_hopping_code\main.c"
  48  0001              @BITDATASEC .section 'data'
  48  0000              _new_data_flag	dbit 0
  48  0001              #pragma debug variable 2 1 _new_data_flag "new_data_flag"
  48  0001              public _key_changemode_state
  47  0001              #line 47 "c:\users\asus\desktop\yeh\rf_control\txd19\txd19ŧŧąąūđcode\txd19_ubv1.2(hcs200)\bc68f3132\BC68F3132_hopping_code\main.c"
  47  0001              @BITDATASEC .section 'data'
  47  0000              _key_changemode_state	dbit 0
  47  0001              #pragma debug variable 2 1 _key_changemode_state "key_changemode_state"
  47  0001              #pragma debug variable 8 1 ___mp1 "__mp1" 1
  47  0001              #pragma debug struct_end
  47  0001              #pragma debug struct_end
  47  0001              #pragma debug union_end
  47  0001              #pragma debug union_end
  47  0001              #pragma debug variable 48 1 ___bp "__bp" 1
  47  0001              #pragma debug variable 8 1 ___tblp "__tblp" 1
  47  0001              #pragma debug struct_end
  47  0001              #pragma debug struct_end
  47  0001              #pragma debug union_end
  47  0001              #pragma debug union_end
  47  0001              #pragma debug variable 50 1 ___status "__status" 1
  47  0001              #pragma debug struct_end
  47  0001              #pragma debug struct_end
  47  0001              #pragma debug union_end
  47  0001              #pragma debug union_end
  47  0001              #pragma debug variable 52 1 ___integ "__integ" 1
  47  0001              #pragma debug struct_end
  47  0001              #pragma debug struct_end
  47  0001              #pragma debug union_end
  47  0001              #pragma debug union_end
  47  0001              #pragma debug variable 54 1 ___wdtc "__wdtc" 1
  47  0001              #pragma debug struct_end
  47  0001              #pragma debug struct_end
  47  0001              #pragma debug union_end
  47  0001              #pragma debug union_end
  47  0001              #pragma debug variable 56 1 ___scc "__scc" 1
  47  0001              #pragma debug struct_end
  47  0001              #pragma debug struct_end
  47  0001              #pragma debug union_end
  47  0001              #pragma debug union_end
  47  0001              #pragma debug variable 58 1 ___hircc "__hircc" 1
  47  0001              #pragma debug struct_end
  47  0001              #pragma debug struct_end
  47  0001              #pragma debug union_end
  47  0001              #pragma debug union_end
  47  0001              #pragma debug variable 60 1 ___pa "__pa" 1
  47  0001              #pragma debug struct_end
  47  0001              #pragma debug struct_end
  47  0001              #pragma debug union_end
  47  0001              #pragma debug union_end
  47  0001              #pragma debug variable 62 1 ___pac "__pac" 1
  47  0001              #pragma debug struct_end
  47  0001              #pragma debug struct_end
  47  0001              #pragma debug union_end
  47  0001              #pragma debug union_end
  47  0001              #pragma debug variable 64 1 ___pb "__pb" 1
  47  0001              #pragma debug struct_end
  47  0001              #pragma debug struct_end
  47  0001              #pragma debug union_end
  47  0001              #pragma debug union_end
"File: main.c        Assembler  Version HGASM0202      Page 32

  47  0001              #pragma debug variable 66 1 ___pbc "__pbc" 1
  47  0001              #pragma debug struct_end
  47  0001              #pragma debug struct_end
  47  0001              #pragma debug union_end
  47  0001              #pragma debug union_end
  47  0001              #pragma debug variable 68 1 ___lvdc "__lvdc" 1
  47  0001              #pragma debug struct_end
  47  0001              #pragma debug struct_end
  47  0001              #pragma debug union_end
  47  0001              #pragma debug union_end
  47  0001              #pragma debug variable 70 1 ___pscr "__pscr" 1
  47  0001              #pragma debug struct_end
  47  0001              #pragma debug struct_end
  47  0001              #pragma debug union_end
  47  0001              #pragma debug union_end
  47  0001              #pragma debug variable 72 1 ___eea "__eea" 1
  47  0001              #pragma debug variable 8 1 ___eed "__eed" 1
  47  0001              #pragma debug struct_end
  47  0001              #pragma debug struct_end
  47  0001              #pragma debug union_end
  47  0001              #pragma debug union_end
  47  0001              #pragma debug variable 74 1 ___tb0c "__tb0c" 1
  47  0001              #pragma debug struct_end
  47  0001              #pragma debug struct_end
  47  0001              #pragma debug union_end
  47  0001              #pragma debug union_end
  47  0001              #pragma debug variable 76 1 ___tb1c "__tb1c" 1
  47  0001              #pragma debug struct_end
  47  0001              #pragma debug struct_end
  47  0001              #pragma debug union_end
  47  0001              #pragma debug union_end
  47  0001              #pragma debug variable 78 1 ___intc0 "__intc0" 1
  47  0001              #pragma debug struct_end
  47  0001              #pragma debug struct_end
  47  0001              #pragma debug union_end
  47  0001              #pragma debug union_end
  47  0001              #pragma debug variable 80 1 ___intc1 "__intc1" 1
  47  0001              #pragma debug struct_end
  47  0001              #pragma debug struct_end
  47  0001              #pragma debug union_end
  47  0001              #pragma debug union_end
  47  0001              #pragma debug variable 82 1 ___ctm0c0 "__ctm0c0" 1
  47  0001              #pragma debug struct_end
  47  0001              #pragma debug struct_end
  47  0001              #pragma debug union_end
  47  0001              #pragma debug union_end
  47  0001              #pragma debug variable 84 1 ___ctm1c0 "__ctm1c0" 1
  47  0001              #pragma debug struct_end
  47  0001              #pragma debug struct_end
  47  0001              #pragma debug union_end
  47  0001              #pragma debug union_end
  47  0001              #pragma debug variable 86 1 ___pas0 "__pas0" 1
  47  0001              #pragma debug struct_end
  47  0001              #pragma debug struct_end
  47  0001              #pragma debug union_end
  47  0001              #pragma debug union_end
  47  0001              #pragma debug variable 88 1 ___pas1 "__pas1" 1
  47  0001              #pragma debug struct_end
  47  0001              #pragma debug struct_end
  47  0001              #pragma debug union_end
"File: main.c        Assembler  Version HGASM0202      Page 33

  47  0001              #pragma debug union_end
  47  0001              #pragma debug variable 90 1 ___pbs1 "__pbs1" 1
  47  0001              #pragma debug struct_end
  47  0001              #pragma debug struct_end
  47  0001              #pragma debug union_end
  47  0001              #pragma debug union_end
  47  0001              #pragma debug variable 92 1 ___drvcc "__drvcc" 1
  47  0001              #pragma debug variable 8 1 ___iar1 "__iar1" 1
  47  0001              
  47  0001              ; output external variables
  47  0001              extern _MRFDATA:byte
  47  0001              extern _KeyCurrentStatus:byte
  47  0001              extern _T_FRAME_COUNT:byte
  47  0001              extern _fkeyrelse:bit
  47  0001              extern _DISC:byte
  47  0001              extern _SERIAL_NUMBER:byte
  47  0001              extern _MFG:byte
  47  0001              extern _MBUF:byte
  47  0001              extern r1:byte
  47  0001              extern r2:byte
  47  0001              extern r3:byte
  47  0001              extern r4:byte
  47  0001              extern r5:byte
  83  0001              #line 83 "c:\users\asus\desktop\yeh\rf_control\txd19\txd19ŧŧąąūđcode\txd19_ubv1.2(hcs200)\bc68f3132\BC68F3132_hopping_code\main.c"
  83  0000              @code .section at 0 'code'
  83  0000  2800     R  	jmp _main_startup1
  83  0001              
  83  0001              extern _produceKey:near
  83  0001              extern _Key_Init:near
  83  0001              extern _LVD_Init:near
  83  0001              extern _LED_Init:near
  83  0001              extern _I2C_INI:near
  83  0001              extern _I2C_XT_WK:near
  83  0001              extern _I2C_SCK_TOGGLE:near
  83  0001              extern _WRITE_I2C_MULTI_BYTE:near
  83  0001              extern _I2C_SDA_TOGGLE:near
  83  0001              extern _CTM0_INIT:near
  83  0001              extern _CTM1_INIT:near
  83  0001              extern _CheckKeyStatus:near
  83  0001              extern _Hopping_Encryption:near
  83  0001              extern _DATA_PRO:near
  83  0001              
  83  0001              ; 
  83  0001              ; Generated by holtek-gcc v3.19, Thu Nov 06 10:43:28 2025
  83  0001              ; Rebuild 718
  83  0001              ; end of file


        0 Errors, 0