"File: packet_format.c  Assembler  Version HGASM0202      Page 1


   1  0000              ; Generated by holtek-gcc v3.19, Thu Nov 06 10:43:27 2025
   2  0000              ; 
   3  0000              ; Configuration:
   4  0000              ;       without long instruction
   5  0000              ;       Single ROM, Multi-RAM
   6  0000              ;       bits_per_rom_unit:15
   7  0000              ;       with mp1
   8  0000              ;       with tbhp, address(0x9)
   9  0000              ;          Use ret-const
  10  0000              ;       
  11  0000              ;       
  12  0000              ;       
  13  0000              ; use 'tabrdc' instead of 'tabrd'
  14  0000              ;       
  15  0000              
  16  0000              #pragma translator "holtek-gcc 4.6.4" "3.19" "build 20130711"
  17  0000              ; Rebuild 718
  18  0000              
  19  0000              ir equ [2]
  20  0000              mp equ [3]
  21  0000              sbp equ [7]
  22  0000              acc equ [5]
  23  0000              bp equ [4]
  24  0000              status equ [10]
  25  0000              c equ [10].0
  26  0000              ac equ [10].1
  27  0000              z equ [10].2
  28  0000              ov equ [10].3
  29  0000              intc equ [11]
  30  0000              
  31  0000              extern ra:byte
  32  0000              extern rb:byte
  33  0000              extern rc:byte
  34  0000              extern rd:byte
  35  0000              extern re:byte
  36  0000              extern rf:byte
  37  0000              extern rg:byte
  38  0000              extern rh:byte
  39  0000              extern _Crom2Prom:near
  40  0000              extern _Crom2PromNext:near
  41  0000              
  42  0000              RAMBANK 0 @HCCINIT, @HCCINIT0
  43  0000              
  44  0000              RAMBANK 0 @BITDATASEC, @BITDATASEC1
  45  0000              @HCCINIT	.section 'data'
  46  0000              @HCCINIT0	.section 'data'
  47  0000              @BITDATASEC	 .section 'data'
  48  0000              @BITDATASEC1	 .section 'data'
  49  0000              
  50  0000              #pragma debug scope 1 1
  51  0000              	extern __DELAY3:near
  52  0000              	extern __DELAYX3:near
  53  0000              	extern __DELAYX6:near
  54  0000              	extern __DELAYY5:near
  55  0000              	extern __DELAYY3:near
  56  0000              	extern _builtin_holtek_delay_2:byte
  57  0000              ___acc equ [5]
  58  0000              public _CRC_8
  59  0000              #pragma debug scope 2 1
"File: packet_format.ASM  Assembler  Version HGASM0202      Page 2


  42  0000              #line 42 "c:\users\asus\desktop\yeh\rf_control\txd19\txd19ŧŧąąūđcode\txd19_ubv1.2(hcs200)\bc68f3132\packet_format\packet_format.c"
  42  0000              _CRC_8 .section 'code'
  42  0000              _CRC_8 proc
  42  0000  00              local _CRC_8_2 db 1 dup(?)	; 0,1
  42  0000  0080     R  	mov _CRC_8_2[0],a
  42  0001              #pragma debug variable 8 2 _CRC_8_2+0 "mData"
  43  0001              #line 43 "c:\users\asus\desktop\yeh\rf_control\txd19\txd19ŧŧąąūđcode\txd19_ubv1.2(hcs200)\bc68f3132\packet_format\packet_format.c"
  43  0001              ;# 43 "c:\users\asus\desktop\yeh\rf_control\txd19\txd19ŧŧąąūđcode\txd19_ubv1.2(hcs200)\bc68f3132\packet_format\packet_format.c" 1
  43  0001  0700     R  	mov A,_CRC_8_2[0]
  44  0002              #line 44 "c:\users\asus\desktop\yeh\rf_control\txd19\txd19ŧŧąąūđcode\txd19_ubv1.2(hcs200)\bc68f3132\packet_format\packet_format.c"
  44  0002              ;# 44 "c:\users\asus\desktop\yeh\rf_control\txd19\txd19ŧŧąąūđcode\txd19_ubv1.2(hcs200)\bc68f3132\packet_format\packet_format.c" 1
  44  0002  0480     R  	xorm A,_mCRCData[0]
  45  0003              #line 45 "c:\users\asus\desktop\yeh\rf_control\txd19\txd19ŧŧąąūđcode\txd19_ubv1.2(hcs200)\bc68f3132\packet_format\packet_format.c"
  45  0003              ;# 45 "c:\users\asus\desktop\yeh\rf_control\txd19\txd19ŧŧąąūđcode\txd19_ubv1.2(hcs200)\bc68f3132\packet_format\packet_format.c" 1
  45  0003  1F05        	clr [5]
  46  0004              #line 46 "c:\users\asus\desktop\yeh\rf_control\txd19\txd19ŧŧąąūđcode\txd19_ubv1.2(hcs200)\bc68f3132\packet_format\packet_format.c"
  46  0004              ;# 46 "c:\users\asus\desktop\yeh\rf_control\txd19\txd19ŧŧąąūđcode\txd19_ubv1.2(hcs200)\bc68f3132\packet_format\packet_format.c" 1
  46  0004  3C00     R  	sz	_mCRCData[0].0
  47  0005              #line 47 "c:\users\asus\desktop\yeh\rf_control\txd19\txd19ŧŧąąūđcode\txd19_ubv1.2(hcs200)\bc68f3132\packet_format\packet_format.c"
  47  0005              ;# 47 "c:\users\asus\desktop\yeh\rf_control\txd19\txd19ŧŧąąūđcode\txd19_ubv1.2(hcs200)\bc68f3132\packet_format\packet_format.c" 1
  47  0005  0C5E        	xor  A,94
  49  0006              #line 49 "c:\users\asus\desktop\yeh\rf_control\txd19\txd19ŧŧąąūđcode\txd19_ubv1.2(hcs200)\bc68f3132\packet_format\packet_format.c"
  49  0006              ;# 49 "c:\users\asus\desktop\yeh\rf_control\txd19\txd19ŧŧąąūđcode\txd19_ubv1.2(hcs200)\bc68f3132\packet_format\packet_format.c" 1
  49  0006  3C00     R  	sz	_mCRCData[0].1
  50  0007              #line 50 "c:\users\asus\desktop\yeh\rf_control\txd19\txd19ŧŧąąūđcode\txd19_ubv1.2(hcs200)\bc68f3132\packet_format\packet_format.c"
  50  0007              ;# 50 "c:\users\asus\desktop\yeh\rf_control\txd19\txd19ŧŧąąūđcode\txd19_ubv1.2(hcs200)\bc68f3132\packet_format\packet_format.c" 1
  50  0007  0CBC        	xor  A,188
  52  0008              #line 52 "c:\users\asus\desktop\yeh\rf_control\txd19\txd19ŧŧąąūđcode\txd19_ubv1.2(hcs200)\bc68f3132\packet_format\packet_format.c"
  52  0008              ;# 52 "c:\users\asus\desktop\yeh\rf_control\txd19\txd19ŧŧąąūđcode\txd19_ubv1.2(hcs200)\bc68f3132\packet_format\packet_format.c" 1
  52  0008  3C00     R  	sz	_mCRCData[0].2
  53  0009              #line 53 "c:\users\asus\desktop\yeh\rf_control\txd19\txd19ŧŧąąūđcode\txd19_ubv1.2(hcs200)\bc68f3132\packet_format\packet_format.c"
  53  0009              ;# 53 "c:\users\asus\desktop\yeh\rf_control\txd19\txd19ŧŧąąūđcode\txd19_ubv1.2(hcs200)\bc68f3132\packet_format\packet_format.c" 1
  53  0009  0C61        	xor  A,061H
  55  000A              #line 55 "c:\users\asus\desktop\yeh\rf_control\txd19\txd19ŧŧąąūđcode\txd19_ubv1.2(hcs200)\bc68f3132\packet_format\packet_format.c"
  55  000A              ;# 55 "c:\users\asus\desktop\yeh\rf_control\txd19\txd19ŧŧąąūđcode\txd19_ubv1.2(hcs200)\bc68f3132\packet_format\packet_format.c" 1
  55  000A  3C00     R  	sz	_mCRCData[0].3
  56  000B              #line 56 "c:\users\asus\desktop\yeh\rf_control\txd19\txd19ŧŧąąūđcode\txd19_ubv1.2(hcs200)\bc68f3132\packet_format\packet_format.c"
  56  000B              ;# 56 "c:\users\asus\desktop\yeh\rf_control\txd19\txd19ŧŧąąūđcode\txd19_ubv1.2(hcs200)\bc68f3132\packet_format\packet_format.c" 1
  56  000B  0CC2        	xor  A,0C2H
  58  000C              #line 58 "c:\users\asus\desktop\yeh\rf_control\txd19\txd19ŧŧąąūđcode\txd19_ubv1.2(hcs200)\bc68f3132\packet_format\packet_format.c"
  58  000C              ;# 58 "c:\users\asus\desktop\yeh\rf_control\txd19\txd19ŧŧąąūđcode\txd19_ubv1.2(hcs200)\bc68f3132\packet_format\packet_format.c" 1
  58  000C  3C00     R  	sz	_mCRCData[0].4
  59  000D              #line 59 "c:\users\asus\desktop\yeh\rf_control\txd19\txd19ŧŧąąūđcode\txd19_ubv1.2(hcs200)\bc68f3132\packet_format\packet_format.c"
  59  000D              ;# 59 "c:\users\asus\desktop\yeh\rf_control\txd19\txd19ŧŧąąūđcode\txd19_ubv1.2(hcs200)\bc68f3132\packet_format\packet_format.c" 1
  59  000D  0C9D        	xor  A,09DH
  61  000E              #line 61 "c:\users\asus\desktop\yeh\rf_control\txd19\txd19ŧŧąąūđcode\txd19_ubv1.2(hcs200)\bc68f3132\packet_format\packet_format.c"
  61  000E              ;# 61 "c:\users\asus\desktop\yeh\rf_control\txd19\txd19ŧŧąąūđcode\txd19_ubv1.2(hcs200)\bc68f3132\packet_format\packet_format.c" 1
  61  000E  3C00     R  	sz	_mCRCData[0].5
  62  000F              #line 62 "c:\users\asus\desktop\yeh\rf_control\txd19\txd19ŧŧąąūđcode\txd19_ubv1.2(hcs200)\bc68f3132\packet_format\packet_format.c"
  62  000F              ;# 62 "c:\users\asus\desktop\yeh\rf_control\txd19\txd19ŧŧąąūđcode\txd19_ubv1.2(hcs200)\bc68f3132\packet_format\packet_format.c" 1
  62  000F  0C23        	xor  A,023H
  64  0010              #line 64 "c:\users\asus\desktop\yeh\rf_control\txd19\txd19ŧŧąąūđcode\txd19_ubv1.2(hcs200)\bc68f3132\packet_format\packet_format.c"
  64  0010              ;# 64 "c:\users\asus\desktop\yeh\rf_control\txd19\txd19ŧŧąąūđcode\txd19_ubv1.2(hcs200)\bc68f3132\packet_format\packet_format.c" 1
  64  0010  3C00     R  	sz	_mCRCData[0].6
  65  0011              #line 65 "c:\users\asus\desktop\yeh\rf_control\txd19\txd19ŧŧąąūđcode\txd19_ubv1.2(hcs200)\bc68f3132\packet_format\packet_format.c"
  65  0011              ;# 65 "c:\users\asus\desktop\yeh\rf_control\txd19\txd19ŧŧąąūđcode\txd19_ubv1.2(hcs200)\bc68f3132\packet_format\packet_format.c" 1
  65  0011  0C46        	xor  A,046H
  67  0012              #line 67 "c:\users\asus\desktop\yeh\rf_control\txd19\txd19ŧŧąąūđcode\txd19_ubv1.2(hcs200)\bc68f3132\packet_format\packet_format.c"
  67  0012              ;# 67 "c:\users\asus\desktop\yeh\rf_control\txd19\txd19ŧŧąąūđcode\txd19_ubv1.2(hcs200)\bc68f3132\packet_format\packet_format.c" 1
"File: packet_format.c  Assembler  Version HGASM0202      Page 3

  67  0012  3C00     R  	sz	_mCRCData[0].7
  68  0013              #line 68 "c:\users\asus\desktop\yeh\rf_control\txd19\txd19ŧŧąąūđcode\txd19_ubv1.2(hcs200)\bc68f3132\packet_format\packet_format.c"
  68  0013              ;# 68 "c:\users\asus\desktop\yeh\rf_control\txd19\txd19ŧŧąąūđcode\txd19_ubv1.2(hcs200)\bc68f3132\packet_format\packet_format.c" 1
  68  0013  0C8C        	xor  A,08CH
  69  0014              #line 69 "c:\users\asus\desktop\yeh\rf_control\txd19\txd19ŧŧąąūđcode\txd19_ubv1.2(hcs200)\bc68f3132\packet_format\packet_format.c"
  69  0014              ;# 69 "c:\users\asus\desktop\yeh\rf_control\txd19\txd19ŧŧąąūđcode\txd19_ubv1.2(hcs200)\bc68f3132\packet_format\packet_format.c" 1
  69  0014  0080     R  	mov _mCRCData[0],A
  69  0015  0003        	ret
  69  0016              _CRC_8 endp
  69  0016              #line 69 "c:\users\asus\desktop\yeh\rf_control\txd19\txd19ŧŧąąūđcode\txd19_ubv1.2(hcs200)\bc68f3132\packet_format\packet_format.c"
  69  0016              #pragma debug scope 1 1
  69  0016              public _Serial_CRC
  69  0016              #pragma debug scope 3 1
  15  0016              #line 15 "c:\users\asus\desktop\yeh\rf_control\txd19\txd19ŧŧąąūđcode\txd19_ubv1.2(hcs200)\bc68f3132\packet_format\packet_format.c"
  15  0000              _Serial_CRC .section 'code'
  15  0000              _Serial_CRC proc
  16  0000              #line 16 "c:\users\asus\desktop\yeh\rf_control\txd19\txd19ŧŧąąūđcode\txd19_ubv1.2(hcs200)\bc68f3132\packet_format\packet_format.c"
  16  0000  1F00     R  	clr _mCRCData[0]
  17  0001              #line 17 "c:\users\asus\desktop\yeh\rf_control\txd19\txd19ŧŧąąūđcode\txd19_ubv1.2(hcs200)\bc68f3132\packet_format\packet_format.c"
  17  0001  0700     E  	mov a,_SERIAL_NUMBER[0]
  17  0002  0080     E  	mov ra,a
  17  0003  0700     E  	mov a,ra
  17  0004  2000     R  	call _CRC_8
  18  0005              #line 18 "c:\users\asus\desktop\yeh\rf_control\txd19\txd19ŧŧąąūđcode\txd19_ubv1.2(hcs200)\bc68f3132\packet_format\packet_format.c"
  18  0005  0700     E  	mov a,_SERIAL_NUMBER[1]
  18  0006  0080     E  	mov ra,a
  18  0007  0700     E  	mov a,ra
  18  0008  2000     R  	call _CRC_8
  19  0009              #line 19 "c:\users\asus\desktop\yeh\rf_control\txd19\txd19ŧŧąąūđcode\txd19_ubv1.2(hcs200)\bc68f3132\packet_format\packet_format.c"
  19  0009  0700     E  	mov a,_SERIAL_NUMBER[2]
  19  000A  0080     E  	mov ra,a
  19  000B  0700     E  	mov a,ra
  19  000C  2000     R  	call _CRC_8
  20  000D              #line 20 "c:\users\asus\desktop\yeh\rf_control\txd19\txd19ŧŧąąūđcode\txd19_ubv1.2(hcs200)\bc68f3132\packet_format\packet_format.c"
  20  000D  0700     E  	mov a,_SERIAL_NUMBER[3]
  20  000E  0080     E  	mov ra,a
  20  000F  0700     E  	mov a,ra
  20  0010  2000     R  	call _CRC_8
  21  0011              #line 21 "c:\users\asus\desktop\yeh\rf_control\txd19\txd19ŧŧąąūđcode\txd19_ubv1.2(hcs200)\bc68f3132\packet_format\packet_format.c"
  21  0011  0700     R  	mov a,_mCRCData[0]
  21  0012  0080     E  	mov ra,a
  22  0013              #line 22 "c:\users\asus\desktop\yeh\rf_control\txd19\txd19ŧŧąąūđcode\txd19_ubv1.2(hcs200)\bc68f3132\packet_format\packet_format.c"
  22  0013  0700     E  	mov a,ra
  22  0014  0003        	ret
  22  0015              _Serial_CRC endp
  22  0015              #line 22 "c:\users\asus\desktop\yeh\rf_control\txd19\txd19ŧŧąąūđcode\txd19_ubv1.2(hcs200)\bc68f3132\packet_format\packet_format.c"
  22  0015              #pragma debug scope 1 1
  22  0015              public _Encryp_CRC
  22  0015              #pragma debug scope 4 1
  25  0015              #line 25 "c:\users\asus\desktop\yeh\rf_control\txd19\txd19ŧŧąąūđcode\txd19_ubv1.2(hcs200)\bc68f3132\packet_format\packet_format.c"
  25  0000              _Encryp_CRC .section 'code'
  25  0000              _Encryp_CRC proc
  26  0000              #line 26 "c:\users\asus\desktop\yeh\rf_control\txd19\txd19ŧŧąąūđcode\txd19_ubv1.2(hcs200)\bc68f3132\packet_format\packet_format.c"
  26  0000  1F00     R  	clr _mCRCData[0]
  27  0001              #line 27 "c:\users\asus\desktop\yeh\rf_control\txd19\txd19ŧŧąąūđcode\txd19_ubv1.2(hcs200)\bc68f3132\packet_format\packet_format.c"
  27  0001  0700     E  	mov a,_cSync[0]
  27  0002  0080     E  	mov ra,a
  27  0003  0700     E  	mov a,ra
  27  0004  2000     R  	call _CRC_8
  28  0005              #line 28 "c:\users\asus\desktop\yeh\rf_control\txd19\txd19ŧŧąąūđcode\txd19_ubv1.2(hcs200)\bc68f3132\packet_format\packet_format.c"
"File: packet_format.c  Assembler  Version HGASM0202      Page 4

  28  0005  0700     E  	mov a,_cSync[1]
  28  0006  0080     E  	mov ra,a
  28  0007  0700     E  	mov a,ra
  28  0008  2000     R  	call _CRC_8
  29  0009              #line 29 "c:\users\asus\desktop\yeh\rf_control\txd19\txd19ŧŧąąūđcode\txd19_ubv1.2(hcs200)\bc68f3132\packet_format\packet_format.c"
  29  0009  0700     E  	mov a,_CRC_8BIT[0]
  29  000A  0080     E  	mov ra,a
  29  000B  0700     E  	mov a,ra
  29  000C  2000     R  	call _CRC_8
  30  000D              #line 30 "c:\users\asus\desktop\yeh\rf_control\txd19\txd19ŧŧąąūđcode\txd19_ubv1.2(hcs200)\bc68f3132\packet_format\packet_format.c"
  30  000D  0700     E  	mov a,_MRFDATA[0]
  30  000E  0080     E  	mov ra,a
  30  000F  0700     E  	mov a,ra
  30  0010  2000     R  	call _CRC_8
  31  0011              #line 31 "c:\users\asus\desktop\yeh\rf_control\txd19\txd19ŧŧąąūđcode\txd19_ubv1.2(hcs200)\bc68f3132\packet_format\packet_format.c"
  31  0011  0700     E  	mov a,_SERIAL_NUMBER[0]
  31  0012  0080     E  	mov ra,a
  31  0013  0700     E  	mov a,ra
  31  0014  2000     R  	call _CRC_8
  32  0015              #line 32 "c:\users\asus\desktop\yeh\rf_control\txd19\txd19ŧŧąąūđcode\txd19_ubv1.2(hcs200)\bc68f3132\packet_format\packet_format.c"
  32  0015  0700     E  	mov a,_SERIAL_NUMBER[1]
  32  0016  0080     E  	mov ra,a
  32  0017  0700     E  	mov a,ra
  32  0018  2000     R  	call _CRC_8
  33  0019              #line 33 "c:\users\asus\desktop\yeh\rf_control\txd19\txd19ŧŧąąūđcode\txd19_ubv1.2(hcs200)\bc68f3132\packet_format\packet_format.c"
  33  0019  0700     E  	mov a,_SERIAL_NUMBER[2]
  33  001A  0080     E  	mov ra,a
  33  001B  0700     E  	mov a,ra
  33  001C  2000     R  	call _CRC_8
  34  001D              #line 34 "c:\users\asus\desktop\yeh\rf_control\txd19\txd19ŧŧąąūđcode\txd19_ubv1.2(hcs200)\bc68f3132\packet_format\packet_format.c"
  34  001D  0700     E  	mov a,_SERIAL_NUMBER[3]
  34  001E  0080     E  	mov ra,a
  34  001F  0700     E  	mov a,ra
  34  0020  2000     R  	call _CRC_8
  35  0021              #line 35 "c:\users\asus\desktop\yeh\rf_control\txd19\txd19ŧŧąąūđcode\txd19_ubv1.2(hcs200)\bc68f3132\packet_format\packet_format.c"
  35  0021  0F0F        	mov a,15
  35  0022  0680     R  	andm a,_mCRCData[0]
  36  0023              #line 36 "c:\users\asus\desktop\yeh\rf_control\txd19\txd19ŧŧąąūđcode\txd19_ubv1.2(hcs200)\bc68f3132\packet_format\packet_format.c"
  36  0023  0700     R  	mov a,_mCRCData[0]
  36  0024  0080     E  	mov ra,a
  37  0025              #line 37 "c:\users\asus\desktop\yeh\rf_control\txd19\txd19ŧŧąąūđcode\txd19_ubv1.2(hcs200)\bc68f3132\packet_format\packet_format.c"
  37  0025  0700     E  	mov a,ra
  37  0026  0003        	ret
  37  0027              _Encryp_CRC endp
  37  0027              #line 37 "c:\users\asus\desktop\yeh\rf_control\txd19\txd19ŧŧąąūđcode\txd19_ubv1.2(hcs200)\bc68f3132\packet_format\packet_format.c"
  37  0027              #pragma debug scope 1 1
   9  0027              #line 9 "c:\users\asus\desktop\yeh\rf_control\txd19\txd19ŧŧąąūđcode\txd19_ubv1.2(hcs200)\bc68f3132\packet_format\packet_format.c"
   9  0027              public _mCRCData
   9  0000              @HCCINIT0 .section 'data'
   9  0000              _mCRCData	db 0
   9  0001              #pragma debug variable 8 1 _mCRCData "mCRCData"
   9  0001              
   9  0000              @HCCINIT .section 'data'
   7  0000              #line 7 "c:\users\asus\desktop\yeh\rf_control\txd19\txd19ŧŧąąūđcode\txd19_ubv1.2(hcs200)\bc68f3132\packet_format\packet_format.c"
   7  0000              public _f_Encryp_CRC_init
   7  0000              @BITDATASEC .section 'data'
   7  0000  00          _f_Encryp_CRC_init	dbit 0
   7  0001              #pragma debug variable 2 1 _f_Encryp_CRC_init "f_Encryp_CRC_init"
   7  0001              
   7  0000              @HCCINIT .section 'data'
"File: packet_format.c  Assembler  Version HGASM0202      Page 5

   7  0000              #pragma debug variable 8 1 ___acc "__acc" 1
   7  0000              
   7  0000              ; output external variables
   7  0000              extern _MRFDATA:byte
   7  0000              extern _CRC_8BIT:byte
   7  0000              extern _cSync:byte
   7  0000              extern _SERIAL_NUMBER:byte
   7  0000              
   7  0000              ; 
   7  0000              ; Generated by holtek-gcc v3.19, Thu Nov 06 10:43:27 2025
   7  0000              ; Rebuild 718
   7  0000              ; end of file


        0 Errors, 0