"File: RX.c          Assembler  Version HGASM0202      Page 1


   1  0000              ; Generated by holtek-gcc v3.19, Wed Oct 23 16:45:17 2024
   2  0000              ; 
   3  0000              ; Configuration:
   4  0000              ;       without long instruction
   5  0000              ;       Single ROM, Multi-RAM
   6  0000              ;       bits_per_rom_unit:15
   7  0000              ;       with mp1
   8  0000              ;       with tbhp, address(0x9)
   9  0000              ;          Use ret-const
  10  0000              ;       
  11  0000              ;       
  12  0000              ;       
  13  0000              ; use 'tabrdc' instead of 'tabrd'
  14  0000              ;       
  15  0000              
  16  0000              #pragma translator "holtek-gcc 4.6.4" "3.19" "build 20130711"
  17  0000              ; Rebuild 718
  18  0000              
  19  0000              ir equ [2]
  20  0000              mp equ [3]
  21  0000              sbp equ [7]
  22  0000              acc equ [5]
  23  0000              bp equ [4]
  24  0000              status equ [10]
  25  0000              c equ [10].0
  26  0000              ac equ [10].1
  27  0000              z equ [10].2
  28  0000              ov equ [10].3
  29  0000              intc equ [11]
  30  0000              
  31  0000              extern ra:byte
  32  0000              extern rb:byte
  33  0000              extern rc:byte
  34  0000              extern rd:byte
  35  0000              extern re:byte
  36  0000              extern rf:byte
  37  0000              extern rg:byte
  38  0000              extern rh:byte
  39  0000              extern _Crom2Prom:near
  40  0000              extern _Crom2PromNext:near
  41  0000              
  42  0000              RAMBANK 0 @HCCINIT, @HCCINIT0
  43  0000              
  44  0000              RAMBANK 0 @BITDATASEC, @BITDATASEC1
  45  0000              @HCCINIT	.section 'data'
  46  0000              @HCCINIT0	.section 'data'
  47  0000              @BITDATASEC	 .section 'data'
  48  0000              @BITDATASEC1	 .section 'data'
  49  0000              
  50  0000              #pragma debug scope 1 1
  51  0000              	extern __DELAY3:near
  52  0000              	extern __DELAYX3:near
  53  0000              	extern __DELAYX6:near
  54  0000              	extern __DELAYY5:near
  55  0000              	extern __DELAYY3:near
  56  0000              	extern _builtin_holtek_delay_2:byte
  57  0000              public _decode_pulse
  58  0000              #pragma debug scope 2 1

"File: RX.c          Assembler  Version HGASM0202      Page 2

  51  0000              #line 51 "C:\Users\asus\Desktop\yeh\236.V7.HCS301.NUI\BC68F3132\RX\RX.c"
  51  0000              _decode_pulse .section 'code'
  51  0000              _decode_pulse proc
  51  0000              public _decode_pulse_2
  51  0000  0003[           local _decode_pulse_2 db 3 dup(?)	; 1,2
            00
            ]
  51  0000  0080     R  	mov _decode_pulse_2[1],a
  51  0001              #pragma debug variable 8 2 _decode_pulse_2+1 "width_low"
  51  0001              #pragma debug variable 8 2 _decode_pulse_2+0 "width_high"
  52  0001              #line 52 "C:\Users\asus\Desktop\yeh\236.V7.HCS301.NUI\BC68F3132\RX\RX.c"
  52  0001  0700     R  	mov a,_decode_pulse_2[0]
  52  0002  0200     R  	sub a,_decode_pulse_2[1]
  52  0003  380A        	snz c
  52  0004  2800     R  	jmp _L2
  54  0005              #line 54 "C:\Users\asus\Desktop\yeh\236.V7.HCS301.NUI\BC68F3132\RX\RX.c"
  54  0005  1100     R  	swapa _bit_index[0]
  54  0006  1885        	rl acc
  54  0007  0E1F        	and a,1fh
  54  0008  0080     E  	mov rb,a
  54  0009  1F00     E  	clr rc
  54  000A  0F00     R  	mov a,low offset _Rx_data
  54  000B  0300     E  	add a,rb
  54  000C  0083        	mov mp,a
  54  000D  0F00     R  	mov a,high offset _Rx_data
  54  000E  1300     E  	adc a,rc
  54  000F  0087        	mov sbp,a
  54  0010  2000     E  	call _Crom2Prom
  54  0011  0080     R  	mov _decode_pulse_2[2],a
  54  0012  0700     R  	mov a,_bit_index[0]
  54  0013  0080     E  	mov rb,a
  54  0014  1F00     E  	clr rc
  54  0015  0180     E  	cpl rb
  54  0016  0180     E  	cpl rc
  54  0017  0F07        	mov a,7  
  54  0018  0680     E  	andm a,rb  
  54  0019  0F00        	mov a,0  
  54  001A  0680     E  	andm a,rc
  54  001B  0F01        	mov a,1
  54  001C  0080     E  	mov rd,a
  54  001D  1F00     E  	clr re
  54  001E  1400     E  	inca rb
  54  001F  2800     R  	jmp _LI1
  54  0020              _LI2:
  54  0020  340A        	clr c
  54  0021  1A80     E  	rlc rd
  54  0022  1A80     E  	rlc re
  54  0023              _LI1:
  54  0023  1785        	sdz acc
  54  0024  2800     R  	jmp _LI2
  54  0025  0700     R  	mov a,_decode_pulse_2[2]
  54  0026  0580     E  	orm a,rd
  54  0027  2800     R  	jmp _L5
  54  0028              _L2:
  58  0028              #line 58 "C:\Users\asus\Desktop\yeh\236.V7.HCS301.NUI\BC68F3132\RX\RX.c"
  58  0028  1100     R  	swapa _bit_index[0]
  58  0029  1885        	rl acc
  58  002A  0E1F        	and a,1fh
  58  002B  0080     E  	mov rb,a
  58  002C  1F00     E  	clr rc
"File: RX.c          Assembler  Version HGASM0202      Page 3

  58  002D  0F00     R  	mov a,low offset _Rx_data
  58  002E  0300     E  	add a,rb
  58  002F  0083        	mov mp,a
  58  0030  0F00     R  	mov a,high offset _Rx_data
  58  0031  1300     E  	adc a,rc
  58  0032  0087        	mov sbp,a
  58  0033  2000     E  	call _Crom2Prom
  58  0034  0080     R  	mov _decode_pulse_2[2],a
  58  0035  0700     R  	mov a,_bit_index[0]
  58  0036  0080     E  	mov rb,a
  58  0037  1F00     E  	clr rc
  58  0038  0180     E  	cpl rb
  58  0039  0180     E  	cpl rc
  58  003A  0F07        	mov a,7  
  58  003B  0680     E  	andm a,rb  
  58  003C  0F00        	mov a,0  
  58  003D  0680     E  	andm a,rc
  58  003E  0F01        	mov a,1
  58  003F  0080     E  	mov rd,a
  58  0040  1F00     E  	clr re
  58  0041  1400     E  	inca rb
  58  0042  2800     R  	jmp _LI3
  58  0043              _LI4:
  58  0043  340A        	clr c
  58  0044  1A80     E  	rlc rd
  58  0045  1A80     E  	rlc re
  58  0046              _LI3:
  58  0046  1785        	sdz acc
  58  0047  2800     R  	jmp _LI4
  58  0048  0100     E  	cpla rd
  58  0049  0080     E  	mov rd,a
  58  004A  0700     R  	mov a,_decode_pulse_2[2]
  58  004B  0680     E  	andm a,rd
  58  004C              _L5:
  58  004C  0707        	mov a,sbp
  58  004D  0084        	mov bp,a
  58  004E  0700     E  	mov a,rd
  58  004F  0082        	mov ir,a
  61  0050              #line 61 "C:\Users\asus\Desktop\yeh\236.V7.HCS301.NUI\BC68F3132\RX\RX.c"
  61  0050  1480     R  	inc _bit_index[0]
  63  0051              #line 63 "C:\Users\asus\Desktop\yeh\236.V7.HCS301.NUI\BC68F3132\RX\RX.c"
  63  0051  0F5B        	mov a,91
  63  0052  0200     R  	sub a,_bit_index[0]
  63  0053  3C0A        	sz c
  63  0054  2800     R  	jmp _L1
  65  0055              #line 65 "C:\Users\asus\Desktop\yeh\236.V7.HCS301.NUI\BC68F3132\RX\RX.c"
  65  0055  1F00     R  	clr _bit_index[0]
  66  0056              #line 66 "C:\Users\asus\Desktop\yeh\236.V7.HCS301.NUI\BC68F3132\RX\RX.c"
  66  0056  3000     R  	set _new_data_flag
  67  0057              #line 67 "C:\Users\asus\Desktop\yeh\236.V7.HCS301.NUI\BC68F3132\RX\RX.c"
  67  0057  3400     R  	clr _preamble_detected
  67  0058              _L1:
  67  0058  0003        	ret
  67  0059              _decode_pulse endp
  67  0059              #line 67 "C:\Users\asus\Desktop\yeh\236.V7.HCS301.NUI\BC68F3132\RX\RX.c"
  67  0059              #pragma debug scope 1 1
  67  0059              ___pa equ [20]
  67  0059              public _RX_change
  67  0059              #pragma debug scope 3 1
  16  0059              #line 16 "C:\Users\asus\Desktop\yeh\236.V7.HCS301.NUI\BC68F3132\RX\RX.c"
"File: RX.c          Assembler  Version HGASM0202      Page 4

  16  0000              _RX_change .section 'code'
  16  0000              _RX_change proc
  17  0000              #line 17 "C:\Users\asus\Desktop\yeh\236.V7.HCS301.NUI\BC68F3132\RX\RX.c"
  17  0000  3B94        	snz [20].7
  17  0001  2800     R  	jmp _L8
  19  0002              #line 19 "C:\Users\asus\Desktop\yeh\236.V7.HCS301.NUI\BC68F3132\RX\RX.c"
  19  0002  1F00     R  	clr _count_high[0]
  20  0003              #line 20 "C:\Users\asus\Desktop\yeh\236.V7.HCS301.NUI\BC68F3132\RX\RX.c"
  20  0003  0700     R  	mov a,_count_low[0]
  20  0004  0080     R  	mov _pulse_width_low[0],a
  22  0005              #line 22 "C:\Users\asus\Desktop\yeh\236.V7.HCS301.NUI\BC68F3132\RX\RX.c"
  22  0005  3C00     R  	sz _preamble_detected
  22  0006  2800     R  	jmp _L9
  24  0007              #line 24 "C:\Users\asus\Desktop\yeh\236.V7.HCS301.NUI\BC68F3132\RX\RX.c"
  24  0007  0F77        	mov a,119
  24  0008  0200     R  	sub a,_pulse_width_high[0]
  24  0009  380A        	snz c
  24  000A  2800     R  	jmp _L10
  24  000B  0F50        	mov a,80
  24  000C  0200     R  	sub a,_pulse_width_low[0]
  24  000D  3C0A        	sz c
  24  000E  2800     R  	jmp _L10
  26  000F              #line 26 "C:\Users\asus\Desktop\yeh\236.V7.HCS301.NUI\BC68F3132\RX\RX.c"
  26  000F  1480     R  	inc _preamble_count[0]
  27  0010              #line 27 "C:\Users\asus\Desktop\yeh\236.V7.HCS301.NUI\BC68F3132\RX\RX.c"
  27  0010  0700     R  	mov a,_preamble_count[0]
  27  0011  0A07        	sub a,7
  27  0012  390A        	snz z
  27  0013  2800     R  	jmp _L7
  29  0014              #line 29 "C:\Users\asus\Desktop\yeh\236.V7.HCS301.NUI\BC68F3132\RX\RX.c"
  29  0014  3000     R  	set _preamble_detected
  29  0015              _L10:
  35  0015              #line 35 "C:\Users\asus\Desktop\yeh\236.V7.HCS301.NUI\BC68F3132\RX\RX.c"
  35  0015  1F00     R  	clr _preamble_count[0]
  35  0016  2800     R  	jmp _L7
  35  0017              _L9:
  40  0017              #line 40 "C:\Users\asus\Desktop\yeh\236.V7.HCS301.NUI\BC68F3132\RX\RX.c"
  40  0017  0700     R  	mov a,_pulse_width_low[0]
  40  0018  0080     E  	mov ra,a
  40  0019  0700     R  	mov a,_pulse_width_high[0]
  40  001A  0080     R  	mov _decode_pulse_2[0],a
  40  001B  0700     E  	mov a,ra
  40  001C  2000     R  	call _decode_pulse
  40  001D  2800     R  	jmp _L7
  40  001E              _L8:
  45  001E              #line 45 "C:\Users\asus\Desktop\yeh\236.V7.HCS301.NUI\BC68F3132\RX\RX.c"
  45  001E  1F00     R  	clr _count_low[0]
  46  001F              #line 46 "C:\Users\asus\Desktop\yeh\236.V7.HCS301.NUI\BC68F3132\RX\RX.c"
  46  001F  0700     R  	mov a,_count_high[0]
  46  0020  0080     R  	mov _pulse_width_high[0],a
  46  0021              _L7:
  46  0021  0003        	ret
  46  0022              _RX_change endp
  46  0022              #line 46 "C:\Users\asus\Desktop\yeh\236.V7.HCS301.NUI\BC68F3132\RX\RX.c"
  46  0022              #pragma debug scope 1 1
  46  0022              public _preamble_count
  46  0000              @HCCINIT	.section 'data'
  12  0000              #line 12 "C:\Users\asus\Desktop\yeh\236.V7.HCS301.NUI\BC68F3132\RX\RX.c"
  12  0000              @HCCINIT .section 'data'
  12  0000              _preamble_count label byte
"File: RX.c          Assembler  Version HGASM0202      Page 5

  12  0000              #pragma debug variable 8 1 _preamble_count "preamble_count"
  12  0000              	db 0
  12  0000              @ROMDATA_BASE .section inpage 'code'
  12  0000  0900        	ret a,0
  12  0001              @HCCINIT .section 'data'
  12  0001              public _preamble_detected
  11  0001              #line 11 "C:\Users\asus\Desktop\yeh\236.V7.HCS301.NUI\BC68F3132\RX\RX.c"
  11  0000              @BITDATASEC .section 'data'
  11  0000  00          _preamble_detected	dbit 0
  11  0001              #pragma debug variable 2 1 _preamble_detected "preamble_detected"
  11  0001              public _pulse_width_high
  10  0001              #line 10 "C:\Users\asus\Desktop\yeh\236.V7.HCS301.NUI\BC68F3132\RX\RX.c"
  10  0001              @HCCINIT .section 'data'
  10  0001              _pulse_width_high label byte
  10  0001              #pragma debug variable 8 1 _pulse_width_high "pulse_width_high"
  10  0001              	db 0
  10  0001              @ROMDATA_BASE .section inpage 'code'
  10  0001  0900        	ret a,0
  10  0002              @HCCINIT .section 'data'
  10  0002              public _pulse_width_low
   9  0002              #line 9 "C:\Users\asus\Desktop\yeh\236.V7.HCS301.NUI\BC68F3132\RX\RX.c"
   9  0002              @HCCINIT .section 'data'
   9  0002              _pulse_width_low label byte
   9  0002              #pragma debug variable 8 1 _pulse_width_low "pulse_width_low"
   9  0002              	db 0
   9  0002              @ROMDATA_BASE .section inpage 'code'
   9  0002  0900        	ret a,0
   9  0003              @HCCINIT .section 'data'
   9  0003              public _count_high
   8  0003              #line 8 "C:\Users\asus\Desktop\yeh\236.V7.HCS301.NUI\BC68F3132\RX\RX.c"
   8  0003              @HCCINIT .section 'data'
   8  0003              _count_high label byte
   8  0003              #pragma debug variable 8 1 _count_high "count_high"
   8  0003              	db 0
   8  0003              @ROMDATA_BASE .section inpage 'code'
   8  0003  0900        	ret a,0
   8  0004              @HCCINIT .section 'data'
   8  0004              public _count_low
   7  0004              #line 7 "C:\Users\asus\Desktop\yeh\236.V7.HCS301.NUI\BC68F3132\RX\RX.c"
   7  0004              @HCCINIT .section 'data'
   7  0004              _count_low label byte
   7  0004              #pragma debug variable 8 1 _count_low "count_low"
   7  0004              	db 0
   7  0004              @ROMDATA_BASE .section inpage 'code'
   7  0004  0900        	ret a,0
   7  0005              @HCCINIT .section 'data'
   6  0005              #line 6 "C:\Users\asus\Desktop\yeh\236.V7.HCS301.NUI\BC68F3132\RX\RX.c"
   6  0005              public _Rx_data
   6  0000              @HCCINIT0 .section 'data'
   6  0000  000C[       _Rx_data	db 12 dup(0)
            00
            ]
   6  000C              #pragma debug array 42 8 12 1
   6  000C              #pragma debug array 42 8 12 1
   6  000C              #pragma debug variable 42 1 _Rx_data "Rx_data"
   6  000C              
   6  0005              @HCCINIT .section 'data'
   6  0005              public _bit_index
   5  0005              #line 5 "C:\Users\asus\Desktop\yeh\236.V7.HCS301.NUI\BC68F3132\RX\RX.c"
   5  0005              @HCCINIT .section 'data'
"File: RX.c          Assembler  Version HGASM0202      Page 6

   5  0005              _bit_index label byte
   5  0005              #pragma debug variable 8 1 _bit_index "bit_index"
   5  0005              	db 0
   5  0005              @ROMDATA_BASE .section inpage 'code'
   5  0005  0900        	ret a,0
   5  0006              @HCCINIT .section 'data'
   5  0006              public _new_data_flag
   4  0006              #line 4 "C:\Users\asus\Desktop\yeh\236.V7.HCS301.NUI\BC68F3132\RX\RX.c"
   4  0001              @BITDATASEC .section 'data'
   4  0000              _new_data_flag	dbit 0
   4  0001              #pragma debug variable 2 1 _new_data_flag "new_data_flag"
   4  0001              #pragma debug struct_end
   4  0001              #pragma debug struct_end
   4  0001              #pragma debug union_end
   4  0001              #pragma debug union_end
   4  0001              #pragma debug variable 44 1 ___pa "__pa" 1
   4  0001              
   4  0001              ; 
   4  0001              ; Generated by holtek-gcc v3.19, Wed Oct 23 16:45:17 2024
   4  0001              ; Rebuild 718
   4  0001              ; end of file


        0 Errors, 0